
jaccard.exe:     file format elf64-littleriscv


Disassembly of section .text:

00000000000100e8 <_ZN9__gnu_cxx9__freeresEv>:
   100e8:	1141                	add	sp,sp,-16
   100ea:	e022                	sd	s0,0(sp)
   100ec:	00040437          	lui	s0,0x40
   100f0:	93040413          	add	s0,s0,-1744 # 3f930 <_ZN12_GLOBAL__N_114emergency_poolE>
   100f4:	6808                	ld	a0,16(s0)
   100f6:	e406                	sd	ra,8(sp)
   100f8:	c509                	beqz	a0,10102 <_ZN9__gnu_cxx9__freeresEv+0x1a>
   100fa:	584150ef          	jal	2567e <free>
   100fe:	00043823          	sd	zero,16(s0)
   10102:	60a2                	ld	ra,8(sp)
   10104:	6402                	ld	s0,0(sp)
   10106:	0141                	add	sp,sp,16
   10108:	8082                	ret

000000000001010a <_ZSt21__throw_bad_exceptionv>:
   1010a:	1141                	add	sp,sp,-16
   1010c:	4521                	li	a0,8
   1010e:	e406                	sd	ra,8(sp)
   10110:	6eb0c0ef          	jal	1cffa <__cxa_allocate_exception>
   10114:	000327b7          	lui	a5,0x32
   10118:	1a878793          	add	a5,a5,424 # 321a8 <_ZTVSt13bad_exception+0x10>
   1011c:	6675                	lui	a2,0x1d
   1011e:	000325b7          	lui	a1,0x32
   10122:	e11c                	sd	a5,0(a0)
   10124:	25460613          	add	a2,a2,596 # 1d254 <_ZNSt13bad_exceptionD1Ev>
   10128:	0f058593          	add	a1,a1,240 # 320f0 <_ZTISt13bad_exception>
   1012c:	5e0080ef          	jal	1870c <__cxa_throw>

0000000000010130 <_ZSt17__throw_bad_allocv>:
   10130:	1141                	add	sp,sp,-16
   10132:	4521                	li	a0,8
   10134:	e406                	sd	ra,8(sp)
   10136:	6c50c0ef          	jal	1cffa <__cxa_allocate_exception>
   1013a:	000327b7          	lui	a5,0x32
   1013e:	24878793          	add	a5,a5,584 # 32248 <_ZTVSt9bad_alloc+0x10>
   10142:	6675                	lui	a2,0x1d
   10144:	000325b7          	lui	a1,0x32
   10148:	e11c                	sd	a5,0(a0)
   1014a:	4c660613          	add	a2,a2,1222 # 1d4c6 <_ZNSt9bad_allocD1Ev>
   1014e:	22058593          	add	a1,a1,544 # 32220 <_ZTISt9bad_alloc>
   10152:	5ba080ef          	jal	1870c <__cxa_throw>

0000000000010156 <_ZSt28__throw_bad_array_new_lengthv>:
   10156:	1141                	add	sp,sp,-16
   10158:	4521                	li	a0,8
   1015a:	e406                	sd	ra,8(sp)
   1015c:	69f0c0ef          	jal	1cffa <__cxa_allocate_exception>
   10160:	000327b7          	lui	a5,0x32
   10164:	2a878793          	add	a5,a5,680 # 322a8 <_ZTVSt20bad_array_new_length+0x10>
   10168:	6675                	lui	a2,0x1d
   1016a:	000325b7          	lui	a1,0x32
   1016e:	e11c                	sd	a5,0(a0)
   10170:	4f860613          	add	a2,a2,1272 # 1d4f8 <_ZNSt20bad_array_new_lengthD1Ev>
   10174:	28058593          	add	a1,a1,640 # 32280 <_ZTISt20bad_array_new_length>
   10178:	594080ef          	jal	1870c <__cxa_throw>

000000000001017c <_ZSt16__throw_bad_castv>:
   1017c:	1141                	add	sp,sp,-16
   1017e:	4521                	li	a0,8
   10180:	e406                	sd	ra,8(sp)
   10182:	6790c0ef          	jal	1cffa <__cxa_allocate_exception>
   10186:	000327b7          	lui	a5,0x32
   1018a:	2f878793          	add	a5,a5,760 # 322f8 <_ZTVSt8bad_cast+0x10>
   1018e:	6675                	lui	a2,0x1d
   10190:	000325b7          	lui	a1,0x32
   10194:	e11c                	sd	a5,0(a0)
   10196:	52a60613          	add	a2,a2,1322 # 1d52a <_ZNSt8bad_castD1Ev>
   1019a:	2d058593          	add	a1,a1,720 # 322d0 <_ZTISt8bad_cast>
   1019e:	56e080ef          	jal	1870c <__cxa_throw>

00000000000101a2 <_ZSt18__throw_bad_typeidv>:
   101a2:	1141                	add	sp,sp,-16
   101a4:	4521                	li	a0,8
   101a6:	e406                	sd	ra,8(sp)
   101a8:	6530c0ef          	jal	1cffa <__cxa_allocate_exception>
   101ac:	000327b7          	lui	a5,0x32
   101b0:	34878793          	add	a5,a5,840 # 32348 <_ZTVSt10bad_typeid+0x10>
   101b4:	6675                	lui	a2,0x1d
   101b6:	000325b7          	lui	a1,0x32
   101ba:	e11c                	sd	a5,0(a0)
   101bc:	55c60613          	add	a2,a2,1372 # 1d55c <_ZNSt10bad_typeidD1Ev>
   101c0:	32058593          	add	a1,a1,800 # 32320 <_ZTISt10bad_typeid>
   101c4:	548080ef          	jal	1870c <__cxa_throw>

00000000000101c8 <_ZSt19__throw_logic_errorPKc>:
   101c8:	7179                	add	sp,sp,-48
   101ca:	e42a                	sd	a0,8(sp)
   101cc:	4541                	li	a0,16
   101ce:	f022                	sd	s0,32(sp)
   101d0:	f406                	sd	ra,40(sp)
   101d2:	ec26                	sd	s1,24(sp)
   101d4:	6270c0ef          	jal	1cffa <__cxa_allocate_exception>
   101d8:	65a2                	ld	a1,8(sp)
   101da:	842a                	mv	s0,a0
   101dc:	7a40d0ef          	jal	1d980 <_ZNSt11logic_errorC1EPKc>
   101e0:	6675                	lui	a2,0x1d
   101e2:	000325b7          	lui	a1,0x32
   101e6:	58860613          	add	a2,a2,1416 # 1d588 <_ZNSt11logic_errorD1Ev>
   101ea:	37058593          	add	a1,a1,880 # 32370 <_ZTISt11logic_error>
   101ee:	8522                	mv	a0,s0
   101f0:	51c080ef          	jal	1870c <__cxa_throw>
   101f4:	84aa                	mv	s1,a0
   101f6:	8522                	mv	a0,s0
   101f8:	63d0c0ef          	jal	1d034 <__cxa_free_exception>
   101fc:	8526                	mv	a0,s1
   101fe:	6df130ef          	jal	240dc <_Unwind_Resume>

0000000000010202 <_ZSt20__throw_domain_errorPKc>:
   10202:	7179                	add	sp,sp,-48
   10204:	e42a                	sd	a0,8(sp)
   10206:	4541                	li	a0,16
   10208:	f022                	sd	s0,32(sp)
   1020a:	f406                	sd	ra,40(sp)
   1020c:	ec26                	sd	s1,24(sp)
   1020e:	5ed0c0ef          	jal	1cffa <__cxa_allocate_exception>
   10212:	65a2                	ld	a1,8(sp)
   10214:	842a                	mv	s0,a0
   10216:	7a00d0ef          	jal	1d9b6 <_ZNSt12domain_errorC1EPKc>
   1021a:	6675                	lui	a2,0x1d
   1021c:	000325b7          	lui	a1,0x32
   10220:	5ac60613          	add	a2,a2,1452 # 1d5ac <_ZNSt12domain_errorD1Ev>
   10224:	3a058593          	add	a1,a1,928 # 323a0 <_ZTISt12domain_error>
   10228:	8522                	mv	a0,s0
   1022a:	4e2080ef          	jal	1870c <__cxa_throw>
   1022e:	84aa                	mv	s1,a0
   10230:	8522                	mv	a0,s0
   10232:	6030c0ef          	jal	1d034 <__cxa_free_exception>
   10236:	8526                	mv	a0,s1
   10238:	6a5130ef          	jal	240dc <_Unwind_Resume>

000000000001023c <_ZSt24__throw_invalid_argumentPKc>:
   1023c:	7179                	add	sp,sp,-48
   1023e:	e42a                	sd	a0,8(sp)
   10240:	4541                	li	a0,16
   10242:	f022                	sd	s0,32(sp)
   10244:	f406                	sd	ra,40(sp)
   10246:	ec26                	sd	s1,24(sp)
   10248:	5b30c0ef          	jal	1cffa <__cxa_allocate_exception>
   1024c:	65a2                	ld	a1,8(sp)
   1024e:	842a                	mv	s0,a0
   10250:	7840d0ef          	jal	1d9d4 <_ZNSt16invalid_argumentC1EPKc>
   10254:	6675                	lui	a2,0x1d
   10256:	000325b7          	lui	a1,0x32
   1025a:	5ba60613          	add	a2,a2,1466 # 1d5ba <_ZNSt16invalid_argumentD1Ev>
   1025e:	3d058593          	add	a1,a1,976 # 323d0 <_ZTISt16invalid_argument>
   10262:	8522                	mv	a0,s0
   10264:	4a8080ef          	jal	1870c <__cxa_throw>
   10268:	84aa                	mv	s1,a0
   1026a:	8522                	mv	a0,s0
   1026c:	5c90c0ef          	jal	1d034 <__cxa_free_exception>
   10270:	8526                	mv	a0,s1
   10272:	66b130ef          	jal	240dc <_Unwind_Resume>

0000000000010276 <_ZSt20__throw_length_errorPKc>:
   10276:	7179                	add	sp,sp,-48
   10278:	e42a                	sd	a0,8(sp)
   1027a:	4541                	li	a0,16
   1027c:	f022                	sd	s0,32(sp)
   1027e:	f406                	sd	ra,40(sp)
   10280:	ec26                	sd	s1,24(sp)
   10282:	5790c0ef          	jal	1cffa <__cxa_allocate_exception>
   10286:	65a2                	ld	a1,8(sp)
   10288:	842a                	mv	s0,a0
   1028a:	7680d0ef          	jal	1d9f2 <_ZNSt12length_errorC1EPKc>
   1028e:	6675                	lui	a2,0x1d
   10290:	000325b7          	lui	a1,0x32
   10294:	5c860613          	add	a2,a2,1480 # 1d5c8 <_ZNSt12length_errorD1Ev>
   10298:	40058593          	add	a1,a1,1024 # 32400 <_ZTISt12length_error>
   1029c:	8522                	mv	a0,s0
   1029e:	46e080ef          	jal	1870c <__cxa_throw>
   102a2:	84aa                	mv	s1,a0
   102a4:	8522                	mv	a0,s0
   102a6:	58f0c0ef          	jal	1d034 <__cxa_free_exception>
   102aa:	8526                	mv	a0,s1
   102ac:	631130ef          	jal	240dc <_Unwind_Resume>

00000000000102b0 <_ZSt20__throw_out_of_rangePKc>:
   102b0:	7179                	add	sp,sp,-48
   102b2:	e42a                	sd	a0,8(sp)
   102b4:	4541                	li	a0,16
   102b6:	f022                	sd	s0,32(sp)
   102b8:	f406                	sd	ra,40(sp)
   102ba:	ec26                	sd	s1,24(sp)
   102bc:	53f0c0ef          	jal	1cffa <__cxa_allocate_exception>
   102c0:	65a2                	ld	a1,8(sp)
   102c2:	842a                	mv	s0,a0
   102c4:	74c0d0ef          	jal	1da10 <_ZNSt12out_of_rangeC1EPKc>
   102c8:	6675                	lui	a2,0x1d
   102ca:	000325b7          	lui	a1,0x32
   102ce:	5d660613          	add	a2,a2,1494 # 1d5d6 <_ZNSt12out_of_rangeD1Ev>
   102d2:	43058593          	add	a1,a1,1072 # 32430 <_ZTISt12out_of_range>
   102d6:	8522                	mv	a0,s0
   102d8:	434080ef          	jal	1870c <__cxa_throw>
   102dc:	84aa                	mv	s1,a0
   102de:	8522                	mv	a0,s0
   102e0:	5550c0ef          	jal	1d034 <__cxa_free_exception>
   102e4:	8526                	mv	a0,s1
   102e6:	5f7130ef          	jal	240dc <_Unwind_Resume>

00000000000102ea <_ZSt21__throw_runtime_errorPKc>:
   102ea:	7179                	add	sp,sp,-48
   102ec:	e42a                	sd	a0,8(sp)
   102ee:	4541                	li	a0,16
   102f0:	f022                	sd	s0,32(sp)
   102f2:	f406                	sd	ra,40(sp)
   102f4:	ec26                	sd	s1,24(sp)
   102f6:	5050c0ef          	jal	1cffa <__cxa_allocate_exception>
   102fa:	65a2                	ld	a1,8(sp)
   102fc:	842a                	mv	s0,a0
   102fe:	7300d0ef          	jal	1da2e <_ZNSt13runtime_errorC1EPKc>
   10302:	6675                	lui	a2,0x1d
   10304:	000325b7          	lui	a1,0x32
   10308:	5e460613          	add	a2,a2,1508 # 1d5e4 <_ZNSt13runtime_errorD1Ev>
   1030c:	46058593          	add	a1,a1,1120 # 32460 <_ZTISt13runtime_error>
   10310:	8522                	mv	a0,s0
   10312:	3fa080ef          	jal	1870c <__cxa_throw>
   10316:	84aa                	mv	s1,a0
   10318:	8522                	mv	a0,s0
   1031a:	51b0c0ef          	jal	1d034 <__cxa_free_exception>
   1031e:	8526                	mv	a0,s1
   10320:	5bd130ef          	jal	240dc <_Unwind_Resume>

0000000000010324 <_ZSt19__throw_range_errorPKc>:
   10324:	7179                	add	sp,sp,-48
   10326:	e42a                	sd	a0,8(sp)
   10328:	4541                	li	a0,16
   1032a:	f022                	sd	s0,32(sp)
   1032c:	f406                	sd	ra,40(sp)
   1032e:	ec26                	sd	s1,24(sp)
   10330:	4cb0c0ef          	jal	1cffa <__cxa_allocate_exception>
   10334:	65a2                	ld	a1,8(sp)
   10336:	842a                	mv	s0,a0
   10338:	72c0d0ef          	jal	1da64 <_ZNSt11range_errorC1EPKc>
   1033c:	6675                	lui	a2,0x1d
   1033e:	000325b7          	lui	a1,0x32
   10342:	60860613          	add	a2,a2,1544 # 1d608 <_ZNSt11range_errorD1Ev>
   10346:	48858593          	add	a1,a1,1160 # 32488 <_ZTISt11range_error>
   1034a:	8522                	mv	a0,s0
   1034c:	3c0080ef          	jal	1870c <__cxa_throw>
   10350:	84aa                	mv	s1,a0
   10352:	8522                	mv	a0,s0
   10354:	4e10c0ef          	jal	1d034 <__cxa_free_exception>
   10358:	8526                	mv	a0,s1
   1035a:	583130ef          	jal	240dc <_Unwind_Resume>

000000000001035e <_ZSt22__throw_overflow_errorPKc>:
   1035e:	7179                	add	sp,sp,-48
   10360:	e42a                	sd	a0,8(sp)
   10362:	4541                	li	a0,16
   10364:	f022                	sd	s0,32(sp)
   10366:	f406                	sd	ra,40(sp)
   10368:	ec26                	sd	s1,24(sp)
   1036a:	4910c0ef          	jal	1cffa <__cxa_allocate_exception>
   1036e:	65a2                	ld	a1,8(sp)
   10370:	842a                	mv	s0,a0
   10372:	7100d0ef          	jal	1da82 <_ZNSt14overflow_errorC1EPKc>
   10376:	6675                	lui	a2,0x1d
   10378:	000325b7          	lui	a1,0x32
   1037c:	61660613          	add	a2,a2,1558 # 1d616 <_ZNSt14overflow_errorD1Ev>
   10380:	4b858593          	add	a1,a1,1208 # 324b8 <_ZTISt14overflow_error>
   10384:	8522                	mv	a0,s0
   10386:	386080ef          	jal	1870c <__cxa_throw>
   1038a:	84aa                	mv	s1,a0
   1038c:	8522                	mv	a0,s0
   1038e:	4a70c0ef          	jal	1d034 <__cxa_free_exception>
   10392:	8526                	mv	a0,s1
   10394:	549130ef          	jal	240dc <_Unwind_Resume>

0000000000010398 <_ZSt23__throw_underflow_errorPKc>:
   10398:	7179                	add	sp,sp,-48
   1039a:	e42a                	sd	a0,8(sp)
   1039c:	4541                	li	a0,16
   1039e:	f022                	sd	s0,32(sp)
   103a0:	f406                	sd	ra,40(sp)
   103a2:	ec26                	sd	s1,24(sp)
   103a4:	4570c0ef          	jal	1cffa <__cxa_allocate_exception>
   103a8:	65a2                	ld	a1,8(sp)
   103aa:	842a                	mv	s0,a0
   103ac:	6f40d0ef          	jal	1daa0 <_ZNSt15underflow_errorC1EPKc>
   103b0:	6675                	lui	a2,0x1d
   103b2:	000325b7          	lui	a1,0x32
   103b6:	62460613          	add	a2,a2,1572 # 1d624 <_ZNSt15underflow_errorD1Ev>
   103ba:	4e858593          	add	a1,a1,1256 # 324e8 <_ZTISt15underflow_error>
   103be:	8522                	mv	a0,s0
   103c0:	34c080ef          	jal	1870c <__cxa_throw>
   103c4:	84aa                	mv	s1,a0
   103c6:	8522                	mv	a0,s0
   103c8:	46d0c0ef          	jal	1d034 <__cxa_free_exception>
   103cc:	8526                	mv	a0,s1
   103ce:	50f130ef          	jal	240dc <_Unwind_Resume>

00000000000103d2 <_ZNSt7__cxx1112basic_stringIcSt11char_traitsIcESaIcEE15_M_replace_coldEPcmPKcmm>:
   103d2:	7179                	add	sp,sp,-48
   103d4:	f022                	sd	s0,32(sp)
   103d6:	ec26                	sd	s1,24(sp)
   103d8:	e84a                	sd	s2,16(sp)
   103da:	e44e                	sd	s3,8(sp)
   103dc:	e052                	sd	s4,0(sp)
   103de:	f406                	sd	ra,40(sp)
   103e0:	892e                	mv	s2,a1
   103e2:	89b2                	mv	s3,a2
   103e4:	8436                	mv	s0,a3
   103e6:	84ba                	mv	s1,a4
   103e8:	8a3e                	mv	s4,a5
   103ea:	cb01                	beqz	a4,103fa <_ZNSt7__cxx1112basic_stringIcSt11char_traitsIcESaIcEE15_M_replace_coldEPcmPKcmm+0x28>
   103ec:	0ae66063          	bltu	a2,a4,1048c <_ZNSt7__cxx1112basic_stringIcSt11char_traitsIcESaIcEE15_M_replace_coldEPcmPKcmm+0xba>
   103f0:	863a                	mv	a2,a4
   103f2:	85b6                	mv	a1,a3
   103f4:	854a                	mv	a0,s2
   103f6:	358100ef          	jal	2074e <_ZNSt7__cxx1112basic_stringIcSt11char_traitsIcESaIcEE7_S_moveEPcPKcm>
   103fa:	000a1a63          	bnez	s4,1040e <_ZNSt7__cxx1112basic_stringIcSt11char_traitsIcESaIcEE15_M_replace_coldEPcmPKcmm+0x3c>
   103fe:	70a2                	ld	ra,40(sp)
   10400:	7402                	ld	s0,32(sp)
   10402:	64e2                	ld	s1,24(sp)
   10404:	6942                	ld	s2,16(sp)
   10406:	69a2                	ld	s3,8(sp)
   10408:	6a02                	ld	s4,0(sp)
   1040a:	6145                	add	sp,sp,48
   1040c:	8082                	ret
   1040e:	ff3488e3          	beq	s1,s3,103fe <_ZNSt7__cxx1112basic_stringIcSt11char_traitsIcESaIcEE15_M_replace_coldEPcmPKcmm+0x2c>
   10412:	8652                	mv	a2,s4
   10414:	013905b3          	add	a1,s2,s3
   10418:	00990533          	add	a0,s2,s1
   1041c:	332100ef          	jal	2074e <_ZNSt7__cxx1112basic_stringIcSt11char_traitsIcESaIcEE7_S_moveEPcPKcm>
   10420:	fc99ffe3          	bgeu	s3,s1,103fe <_ZNSt7__cxx1112basic_stringIcSt11char_traitsIcESaIcEE15_M_replace_coldEPcmPKcmm+0x2c>
   10424:	013907b3          	add	a5,s2,s3
   10428:	00940733          	add	a4,s0,s1
   1042c:	00e7ee63          	bltu	a5,a4,10448 <_ZNSt7__cxx1112basic_stringIcSt11char_traitsIcESaIcEE15_M_replace_coldEPcmPKcmm+0x76>
   10430:	85a2                	mv	a1,s0
   10432:	7402                	ld	s0,32(sp)
   10434:	70a2                	ld	ra,40(sp)
   10436:	69a2                	ld	s3,8(sp)
   10438:	6a02                	ld	s4,0(sp)
   1043a:	8626                	mv	a2,s1
   1043c:	854a                	mv	a0,s2
   1043e:	64e2                	ld	s1,24(sp)
   10440:	6942                	ld	s2,16(sp)
   10442:	6145                	add	sp,sp,48
   10444:	30a1006f          	j	2074e <_ZNSt7__cxx1112basic_stringIcSt11char_traitsIcESaIcEE7_S_moveEPcPKcm>
   10448:	02f46463          	bltu	s0,a5,10470 <_ZNSt7__cxx1112basic_stringIcSt11char_traitsIcESaIcEE15_M_replace_coldEPcmPKcmm+0x9e>
   1044c:	41240433          	sub	s0,s0,s2
   10450:	41340433          	sub	s0,s0,s3
   10454:	9426                	add	s0,s0,s1
   10456:	8626                	mv	a2,s1
   10458:	008905b3          	add	a1,s2,s0
   1045c:	854a                	mv	a0,s2
   1045e:	7402                	ld	s0,32(sp)
   10460:	70a2                	ld	ra,40(sp)
   10462:	64e2                	ld	s1,24(sp)
   10464:	6942                	ld	s2,16(sp)
   10466:	69a2                	ld	s3,8(sp)
   10468:	6a02                	ld	s4,0(sp)
   1046a:	6145                	add	sp,sp,48
   1046c:	2ce1006f          	j	2073a <_ZNSt7__cxx1112basic_stringIcSt11char_traitsIcESaIcEE7_S_copyEPcPKcm>
   10470:	408789b3          	sub	s3,a5,s0
   10474:	864e                	mv	a2,s3
   10476:	85a2                	mv	a1,s0
   10478:	854a                	mv	a0,s2
   1047a:	2d4100ef          	jal	2074e <_ZNSt7__cxx1112basic_stringIcSt11char_traitsIcESaIcEE7_S_moveEPcPKcm>
   1047e:	41348633          	sub	a2,s1,s3
   10482:	009905b3          	add	a1,s2,s1
   10486:	01390533          	add	a0,s2,s3
   1048a:	bfd1                	j	1045e <_ZNSt7__cxx1112basic_stringIcSt11char_traitsIcESaIcEE15_M_replace_coldEPcmPKcmm+0x8c>
   1048c:	f3d9                	bnez	a5,10412 <_ZNSt7__cxx1112basic_stringIcSt11char_traitsIcESaIcEE15_M_replace_coldEPcmPKcmm+0x40>
   1048e:	bf59                	j	10424 <_ZNSt7__cxx1112basic_stringIcSt11char_traitsIcESaIcEE15_M_replace_coldEPcmPKcmm+0x52>

0000000000010490 <exit>:
   10490:	1141                	add	sp,sp,-16
   10492:	4581                	li	a1,0
   10494:	e022                	sd	s0,0(sp)
   10496:	e406                	sd	ra,8(sp)
   10498:	842a                	mv	s0,a0
   1049a:	031170ef          	jal	27cca <__call_exitprocs>
   1049e:	9c01b783          	ld	a5,-1600(gp) # 3e8a0 <__stdio_exit_handler>
   104a2:	c391                	beqz	a5,104a6 <exit+0x16>
   104a4:	9782                	jalr	a5
   104a6:	8522                	mv	a0,s0
   104a8:	0261e0ef          	jal	2e4ce <_exit>

00000000000104ac <_GLOBAL__sub_I__ZN9__gnu_cxx9__freeresEv>:
   104ac:	7175                	add	sp,sp,-144
   104ae:	fca6                	sd	s1,120(sp)
   104b0:	00031537          	lui	a0,0x31
   104b4:	000404b7          	lui	s1,0x40
   104b8:	93048793          	add	a5,s1,-1744 # 3f930 <_ZN12_GLOBAL__N_114emergency_poolE>
   104bc:	e122                	sd	s0,128(sp)
   104be:	f0d2                	sd	s4,96(sp)
   104c0:	ecd6                	sd	s5,88(sp)
   104c2:	e506                	sd	ra,136(sp)
   104c4:	f8ca                	sd	s2,112(sp)
   104c6:	f4ce                	sd	s3,104(sp)
   104c8:	a7850513          	add	a0,a0,-1416 # 30a78 <_ZTVSt9type_info+0xd40>
   104cc:	0007b423          	sd	zero,8(a5)
   104d0:	0007b823          	sd	zero,16(a5)
   104d4:	0007bc23          	sd	zero,24(a5)
   104d8:	0c0150ef          	jal	25598 <getenv>
   104dc:	47bd                	li	a5,15
   104de:	e83e                	sd	a5,16(sp)
   104e0:	000317b7          	lui	a5,0x31
   104e4:	a9078793          	add	a5,a5,-1392 # 30a90 <_ZTVSt9type_info+0xd58>
   104e8:	ec3e                	sd	a5,24(sp)
   104ea:	47a1                	li	a5,8
   104ec:	f03e                	sd	a5,32(sp)
   104ee:	000317b7          	lui	a5,0x31
   104f2:	aa078793          	add	a5,a5,-1376 # 30aa0 <_ZTVSt9type_info+0xd68>
   104f6:	f43e                	sd	a5,40(sp)
   104f8:	47a5                	li	a5,9
   104fa:	fc3e                	sd	a5,56(sp)
   104fc:	000317b7          	lui	a5,0x31
   10500:	ab078793          	add	a5,a5,-1360 # 30ab0 <_ZTVSt9type_info+0xd78>
   10504:	e0be                	sd	a5,64(sp)
   10506:	4791                	li	a5,4
   10508:	842a                	mv	s0,a0
   1050a:	d802                	sw	zero,48(sp)
   1050c:	c4be                	sw	a5,72(sp)
   1050e:	93048493          	add	s1,s1,-1744
   10512:	03a00a13          	li	s4,58
   10516:	02e00a93          	li	s5,46
   1051a:	e039                	bnez	s0,10560 <_GLOBAL__sub_I__ZN9__gnu_cxx9__freeresEv+0xb4>
   1051c:	4726                	lw	a4,72(sp)
   1051e:	04000693          	li	a3,64
   10522:	0007079b          	sext.w	a5,a4
   10526:	00e6d463          	bge	a3,a4,1052e <_GLOBAL__sub_I__ZN9__gnu_cxx9__freeresEv+0x82>
   1052a:	04000793          	li	a5,64
   1052e:	5442                	lw	s0,48(sp)
   10530:	e011                	bnez	s0,10534 <_GLOBAL__sub_I__ZN9__gnu_cxx9__freeresEv+0x88>
   10532:	4419                	li	s0,6
   10534:	0479                	add	s0,s0,30
   10536:	02f40433          	mul	s0,s0,a5
   1053a:	040e                	sll	s0,s0,0x3
   1053c:	ec80                	sd	s0,24(s1)
   1053e:	c801                	beqz	s0,1054e <_GLOBAL__sub_I__ZN9__gnu_cxx9__freeresEv+0xa2>
   10540:	8522                	mv	a0,s0
   10542:	134150ef          	jal	25676 <malloc>
   10546:	e888                	sd	a0,16(s1)
   10548:	e54d                	bnez	a0,105f2 <_GLOBAL__sub_I__ZN9__gnu_cxx9__freeresEv+0x146>
   1054a:	0004bc23          	sd	zero,24(s1)
   1054e:	60aa                	ld	ra,136(sp)
   10550:	640a                	ld	s0,128(sp)
   10552:	74e6                	ld	s1,120(sp)
   10554:	7946                	ld	s2,112(sp)
   10556:	79a6                	ld	s3,104(sp)
   10558:	7a06                	ld	s4,96(sp)
   1055a:	6ae6                	ld	s5,88(sp)
   1055c:	6149                	add	sp,sp,144
   1055e:	8082                	ret
   10560:	00044783          	lbu	a5,0(s0)
   10564:	01479363          	bne	a5,s4,1056a <_GLOBAL__sub_I__ZN9__gnu_cxx9__freeresEv+0xbe>
   10568:	0405                	add	s0,s0,1
   1056a:	473d                	li	a4,15
   1056c:	86a2                	mv	a3,s0
   1056e:	463d                	li	a2,15
   10570:	4581                	li	a1,0
   10572:	0808                	add	a0,sp,16
   10574:	3370c0ef          	jal	1d0aa <_ZNKSt17basic_string_viewIcSt11char_traitsIcEE7compareEmmPKcm>
   10578:	ed15                	bnez	a0,105b4 <_GLOBAL__sub_I__ZN9__gnu_cxx9__freeresEv+0x108>
   1057a:	00f44783          	lbu	a5,15(s0)
   1057e:	03579b63          	bne	a5,s5,105b4 <_GLOBAL__sub_I__ZN9__gnu_cxx9__freeresEv+0x108>
   10582:	0441                	add	s0,s0,16
   10584:	02010913          	add	s2,sp,32
   10588:	00093983          	ld	s3,0(s2)
   1058c:	86a2                	mv	a3,s0
   1058e:	4581                	li	a1,0
   10590:	874e                	mv	a4,s3
   10592:	864e                	mv	a2,s3
   10594:	854a                	mv	a0,s2
   10596:	3150c0ef          	jal	1d0aa <_ZNKSt17basic_string_viewIcSt11char_traitsIcEE7compareEmmPKcm>
   1059a:	e909                	bnez	a0,105ac <_GLOBAL__sub_I__ZN9__gnu_cxx9__freeresEv+0x100>
   1059c:	013407b3          	add	a5,s0,s3
   105a0:	0007c703          	lbu	a4,0(a5)
   105a4:	03d00793          	li	a5,61
   105a8:	00f70d63          	beq	a4,a5,105c2 <_GLOBAL__sub_I__ZN9__gnu_cxx9__freeresEv+0x116>
   105ac:	0961                	add	s2,s2,24
   105ae:	089c                	add	a5,sp,80
   105b0:	fcf91ce3          	bne	s2,a5,10588 <_GLOBAL__sub_I__ZN9__gnu_cxx9__freeresEv+0xdc>
   105b4:	8522                	mv	a0,s0
   105b6:	03a00593          	li	a1,58
   105ba:	2bd160ef          	jal	27076 <strchr>
   105be:	842a                	mv	s0,a0
   105c0:	bfa9                	j	1051a <_GLOBAL__sub_I__ZN9__gnu_cxx9__freeresEv+0x6e>
   105c2:	00198513          	add	a0,s3,1
   105c6:	9522                	add	a0,a0,s0
   105c8:	4601                	li	a2,0
   105ca:	002c                	add	a1,sp,8
   105cc:	60b150ef          	jal	263d6 <strtoul>
   105d0:	6422                	ld	s0,8(sp)
   105d2:	03a00713          	li	a4,58
   105d6:	00044783          	lbu	a5,0(s0)
   105da:	00e78363          	beq	a5,a4,105e0 <_GLOBAL__sub_I__ZN9__gnu_cxx9__freeresEv+0x134>
   105de:	fbf9                	bnez	a5,105b4 <_GLOBAL__sub_I__ZN9__gnu_cxx9__freeresEv+0x108>
   105e0:	800007b7          	lui	a5,0x80000
   105e4:	fff7c793          	not	a5,a5
   105e8:	fca7e6e3          	bltu	a5,a0,105b4 <_GLOBAL__sub_I__ZN9__gnu_cxx9__freeresEv+0x108>
   105ec:	00a92823          	sw	a0,16(s2)
   105f0:	b7d1                	j	105b4 <_GLOBAL__sub_I__ZN9__gnu_cxx9__freeresEv+0x108>
   105f2:	e488                	sd	a0,8(s1)
   105f4:	e100                	sd	s0,0(a0)
   105f6:	00053423          	sd	zero,8(a0)
   105fa:	bf91                	j	1054e <_GLOBAL__sub_I__ZN9__gnu_cxx9__freeresEv+0xa2>

00000000000105fc <register_fini>:
   105fc:	00000793          	li	a5,0
   10600:	c799                	beqz	a5,1060e <register_fini+0x12>
   10602:	0002a537          	lui	a0,0x2a
   10606:	19a50513          	add	a0,a0,410 # 2a19a <__libc_fini_array>
   1060a:	7921706f          	j	27d9c <atexit>
   1060e:	8082                	ret

0000000000010610 <_start>:
   10610:	0002f197          	auipc	gp,0x2f
   10614:	8d018193          	add	gp,gp,-1840 # 3eee0 <__global_pointer$>
   10618:	95018513          	add	a0,gp,-1712 # 3e830 <THREADS>
   1061c:	00030617          	auipc	a2,0x30
   10620:	93c60613          	add	a2,a2,-1732 # 3ff58 <__BSS_END__>
   10624:	8e09                	sub	a2,a2,a0
   10626:	4581                	li	a1,0
   10628:	278170ef          	jal	278a0 <memset>
   1062c:	00017517          	auipc	a0,0x17
   10630:	77050513          	add	a0,a0,1904 # 27d9c <atexit>
   10634:	c519                	beqz	a0,10642 <_start+0x32>
   10636:	0001a517          	auipc	a0,0x1a
   1063a:	b6450513          	add	a0,a0,-1180 # 2a19a <__libc_fini_array>
   1063e:	75e170ef          	jal	27d9c <atexit>
   10642:	11a170ef          	jal	2775c <__libc_init_array>
   10646:	4502                	lw	a0,0(sp)
   10648:	002c                	add	a1,sp,8
   1064a:	4601                	li	a2,0
   1064c:	353050ef          	jal	1619e <main>
   10650:	b581                	j	10490 <exit>

0000000000010652 <__do_global_dtors_aux>:
   10652:	1141                	add	sp,sp,-16
   10654:	e022                	sd	s0,0(sp)
   10656:	9f01c783          	lbu	a5,-1552(gp) # 3e8d0 <completed.1>
   1065a:	e406                	sd	ra,8(sp)
   1065c:	ef99                	bnez	a5,1067a <__do_global_dtors_aux+0x28>
   1065e:	000257b7          	lui	a5,0x25
   10662:	47478793          	add	a5,a5,1140 # 25474 <__deregister_frame_info>
   10666:	c799                	beqz	a5,10674 <__do_global_dtors_aux+0x22>
   10668:	00034537          	lui	a0,0x34
   1066c:	00050513          	mv	a0,a0
   10670:	605140ef          	jal	25474 <__deregister_frame_info>
   10674:	4785                	li	a5,1
   10676:	9ef18823          	sb	a5,-1552(gp) # 3e8d0 <completed.1>
   1067a:	60a2                	ld	ra,8(sp)
   1067c:	6402                	ld	s0,0(sp)
   1067e:	0141                	add	sp,sp,16
   10680:	8082                	ret

0000000000010682 <frame_dummy>:
   10682:	000257b7          	lui	a5,0x25
   10686:	39a78793          	add	a5,a5,922 # 2539a <__register_frame_info>
   1068a:	cb89                	beqz	a5,1069c <frame_dummy+0x1a>
   1068c:	00034537          	lui	a0,0x34
   10690:	9f818593          	add	a1,gp,-1544 # 3e8d8 <object.0>
   10694:	00050513          	mv	a0,a0
   10698:	5031406f          	j	2539a <__register_frame_info>
   1069c:	8082                	ret

000000000001069e <_Z12rev_io_setupjPm>:
   1069e:	7179                	add	sp,sp,-48
   106a0:	f422                	sd	s0,40(sp)
   106a2:	1800                	add	s0,sp,48
   106a4:	87aa                	mv	a5,a0
   106a6:	fcb43823          	sd	a1,-48(s0)
   106aa:	fcf42e23          	sw	a5,-36(s0)
   106ae:	4881                	li	a7,0
   106b0:	00000073          	ecall
   106b4:	87aa                	mv	a5,a0
   106b6:	fef42623          	sw	a5,-20(s0)
   106ba:	fec42783          	lw	a5,-20(s0)
   106be:	853e                	mv	a0,a5
   106c0:	7422                	ld	s0,40(sp)
   106c2:	6145                	add	sp,sp,48
   106c4:	8082                	ret

00000000000106c6 <_Z14rev_io_destroym>:
   106c6:	7179                	add	sp,sp,-48
   106c8:	f422                	sd	s0,40(sp)
   106ca:	1800                	add	s0,sp,48
   106cc:	fca43c23          	sd	a0,-40(s0)
   106d0:	4885                	li	a7,1
   106d2:	00000073          	ecall
   106d6:	87aa                	mv	a5,a0
   106d8:	fef42623          	sw	a5,-20(s0)
   106dc:	fec42783          	lw	a5,-20(s0)
   106e0:	853e                	mv	a0,a5
   106e2:	7422                	ld	s0,40(sp)
   106e4:	6145                	add	sp,sp,48
   106e6:	8082                	ret

00000000000106e8 <_Z13rev_io_submitmlPP4iocb>:
   106e8:	7139                	add	sp,sp,-64
   106ea:	fc22                	sd	s0,56(sp)
   106ec:	0080                	add	s0,sp,64
   106ee:	fca43c23          	sd	a0,-40(s0)
   106f2:	fcb43823          	sd	a1,-48(s0)
   106f6:	fcc43423          	sd	a2,-56(s0)
   106fa:	4889                	li	a7,2
   106fc:	00000073          	ecall
   10700:	87aa                	mv	a5,a0
   10702:	fef42623          	sw	a5,-20(s0)
   10706:	fec42783          	lw	a5,-20(s0)
   1070a:	853e                	mv	a0,a5
   1070c:	7462                	ld	s0,56(sp)
   1070e:	6121                	add	sp,sp,64
   10710:	8082                	ret

0000000000010712 <_Z13rev_io_cancelmP4iocbP8io_event>:
   10712:	7139                	add	sp,sp,-64
   10714:	fc22                	sd	s0,56(sp)
   10716:	0080                	add	s0,sp,64
   10718:	fca43c23          	sd	a0,-40(s0)
   1071c:	fcb43823          	sd	a1,-48(s0)
   10720:	fcc43423          	sd	a2,-56(s0)
   10724:	488d                	li	a7,3
   10726:	00000073          	ecall
   1072a:	87aa                	mv	a5,a0
   1072c:	fef42623          	sw	a5,-20(s0)
   10730:	fec42783          	lw	a5,-20(s0)
   10734:	853e                	mv	a0,a5
   10736:	7462                	ld	s0,56(sp)
   10738:	6121                	add	sp,sp,64
   1073a:	8082                	ret

000000000001073c <_Z16rev_io_geteventsmllP8io_eventP8timespec>:
   1073c:	715d                	add	sp,sp,-80
   1073e:	e4a2                	sd	s0,72(sp)
   10740:	0880                	add	s0,sp,80
   10742:	fca43c23          	sd	a0,-40(s0)
   10746:	fcb43823          	sd	a1,-48(s0)
   1074a:	fcc43423          	sd	a2,-56(s0)
   1074e:	fcd43023          	sd	a3,-64(s0)
   10752:	fae43c23          	sd	a4,-72(s0)
   10756:	4891                	li	a7,4
   10758:	00000073          	ecall
   1075c:	87aa                	mv	a5,a0
   1075e:	fef42623          	sw	a5,-20(s0)
   10762:	fec42783          	lw	a5,-20(s0)
   10766:	853e                	mv	a0,a5
   10768:	6426                	ld	s0,72(sp)
   1076a:	6161                	add	sp,sp,80
   1076c:	8082                	ret

000000000001076e <_Z12rev_setxattrPKcS0_PKvmi>:
   1076e:	715d                	add	sp,sp,-80
   10770:	e4a2                	sd	s0,72(sp)
   10772:	0880                	add	s0,sp,80
   10774:	fca43c23          	sd	a0,-40(s0)
   10778:	fcb43823          	sd	a1,-48(s0)
   1077c:	fcc43423          	sd	a2,-56(s0)
   10780:	fcd43023          	sd	a3,-64(s0)
   10784:	87ba                	mv	a5,a4
   10786:	faf42e23          	sw	a5,-68(s0)
   1078a:	4895                	li	a7,5
   1078c:	00000073          	ecall
   10790:	87aa                	mv	a5,a0
   10792:	fef42623          	sw	a5,-20(s0)
   10796:	fec42783          	lw	a5,-20(s0)
   1079a:	853e                	mv	a0,a5
   1079c:	6426                	ld	s0,72(sp)
   1079e:	6161                	add	sp,sp,80
   107a0:	8082                	ret

00000000000107a2 <_Z13rev_lsetxattrPKcS0_PKvmi>:
   107a2:	715d                	add	sp,sp,-80
   107a4:	e4a2                	sd	s0,72(sp)
   107a6:	0880                	add	s0,sp,80
   107a8:	fca43c23          	sd	a0,-40(s0)
   107ac:	fcb43823          	sd	a1,-48(s0)
   107b0:	fcc43423          	sd	a2,-56(s0)
   107b4:	fcd43023          	sd	a3,-64(s0)
   107b8:	87ba                	mv	a5,a4
   107ba:	faf42e23          	sw	a5,-68(s0)
   107be:	4899                	li	a7,6
   107c0:	00000073          	ecall
   107c4:	87aa                	mv	a5,a0
   107c6:	fef42623          	sw	a5,-20(s0)
   107ca:	fec42783          	lw	a5,-20(s0)
   107ce:	853e                	mv	a0,a5
   107d0:	6426                	ld	s0,72(sp)
   107d2:	6161                	add	sp,sp,80
   107d4:	8082                	ret

00000000000107d6 <_Z13rev_fsetxattriPKcPKvmi>:
   107d6:	7139                	add	sp,sp,-64
   107d8:	fc22                	sd	s0,56(sp)
   107da:	0080                	add	s0,sp,64
   107dc:	87aa                	mv	a5,a0
   107de:	fcb43823          	sd	a1,-48(s0)
   107e2:	fcc43423          	sd	a2,-56(s0)
   107e6:	fcd43023          	sd	a3,-64(s0)
   107ea:	fcf42e23          	sw	a5,-36(s0)
   107ee:	87ba                	mv	a5,a4
   107f0:	fcf42c23          	sw	a5,-40(s0)
   107f4:	489d                	li	a7,7
   107f6:	00000073          	ecall
   107fa:	87aa                	mv	a5,a0
   107fc:	fef42623          	sw	a5,-20(s0)
   10800:	fec42783          	lw	a5,-20(s0)
   10804:	853e                	mv	a0,a5
   10806:	7462                	ld	s0,56(sp)
   10808:	6121                	add	sp,sp,64
   1080a:	8082                	ret

000000000001080c <_Z12rev_getxattrPKcS0_Pvm>:
   1080c:	7139                	add	sp,sp,-64
   1080e:	fc22                	sd	s0,56(sp)
   10810:	0080                	add	s0,sp,64
   10812:	fca43c23          	sd	a0,-40(s0)
   10816:	fcb43823          	sd	a1,-48(s0)
   1081a:	fcc43423          	sd	a2,-56(s0)
   1081e:	fcd43023          	sd	a3,-64(s0)
   10822:	48a1                	li	a7,8
   10824:	00000073          	ecall
   10828:	87aa                	mv	a5,a0
   1082a:	fef42623          	sw	a5,-20(s0)
   1082e:	fec42783          	lw	a5,-20(s0)
   10832:	853e                	mv	a0,a5
   10834:	7462                	ld	s0,56(sp)
   10836:	6121                	add	sp,sp,64
   10838:	8082                	ret

000000000001083a <_Z13rev_lgetxattrPKcS0_Pvm>:
   1083a:	7139                	add	sp,sp,-64
   1083c:	fc22                	sd	s0,56(sp)
   1083e:	0080                	add	s0,sp,64
   10840:	fca43c23          	sd	a0,-40(s0)
   10844:	fcb43823          	sd	a1,-48(s0)
   10848:	fcc43423          	sd	a2,-56(s0)
   1084c:	fcd43023          	sd	a3,-64(s0)
   10850:	48a5                	li	a7,9
   10852:	00000073          	ecall
   10856:	87aa                	mv	a5,a0
   10858:	fef42623          	sw	a5,-20(s0)
   1085c:	fec42783          	lw	a5,-20(s0)
   10860:	853e                	mv	a0,a5
   10862:	7462                	ld	s0,56(sp)
   10864:	6121                	add	sp,sp,64
   10866:	8082                	ret

0000000000010868 <_Z13rev_fgetxattriPKcPvm>:
   10868:	7139                	add	sp,sp,-64
   1086a:	fc22                	sd	s0,56(sp)
   1086c:	0080                	add	s0,sp,64
   1086e:	87aa                	mv	a5,a0
   10870:	fcb43823          	sd	a1,-48(s0)
   10874:	fcc43423          	sd	a2,-56(s0)
   10878:	fcd43023          	sd	a3,-64(s0)
   1087c:	fcf42e23          	sw	a5,-36(s0)
   10880:	48a9                	li	a7,10
   10882:	00000073          	ecall
   10886:	87aa                	mv	a5,a0
   10888:	fef42623          	sw	a5,-20(s0)
   1088c:	fec42783          	lw	a5,-20(s0)
   10890:	853e                	mv	a0,a5
   10892:	7462                	ld	s0,56(sp)
   10894:	6121                	add	sp,sp,64
   10896:	8082                	ret

0000000000010898 <_Z13rev_listxattrPKcPcm>:
   10898:	7139                	add	sp,sp,-64
   1089a:	fc22                	sd	s0,56(sp)
   1089c:	0080                	add	s0,sp,64
   1089e:	fca43c23          	sd	a0,-40(s0)
   108a2:	fcb43823          	sd	a1,-48(s0)
   108a6:	fcc43423          	sd	a2,-56(s0)
   108aa:	48ad                	li	a7,11
   108ac:	00000073          	ecall
   108b0:	87aa                	mv	a5,a0
   108b2:	fef42623          	sw	a5,-20(s0)
   108b6:	fec42783          	lw	a5,-20(s0)
   108ba:	853e                	mv	a0,a5
   108bc:	7462                	ld	s0,56(sp)
   108be:	6121                	add	sp,sp,64
   108c0:	8082                	ret

00000000000108c2 <_Z14rev_llistxattrPKcPcm>:
   108c2:	7139                	add	sp,sp,-64
   108c4:	fc22                	sd	s0,56(sp)
   108c6:	0080                	add	s0,sp,64
   108c8:	fca43c23          	sd	a0,-40(s0)
   108cc:	fcb43823          	sd	a1,-48(s0)
   108d0:	fcc43423          	sd	a2,-56(s0)
   108d4:	48b1                	li	a7,12
   108d6:	00000073          	ecall
   108da:	87aa                	mv	a5,a0
   108dc:	fef42623          	sw	a5,-20(s0)
   108e0:	fec42783          	lw	a5,-20(s0)
   108e4:	853e                	mv	a0,a5
   108e6:	7462                	ld	s0,56(sp)
   108e8:	6121                	add	sp,sp,64
   108ea:	8082                	ret

00000000000108ec <_Z14rev_flistxattriPcm>:
   108ec:	7139                	add	sp,sp,-64
   108ee:	fc22                	sd	s0,56(sp)
   108f0:	0080                	add	s0,sp,64
   108f2:	87aa                	mv	a5,a0
   108f4:	fcb43823          	sd	a1,-48(s0)
   108f8:	fcc43423          	sd	a2,-56(s0)
   108fc:	fcf42e23          	sw	a5,-36(s0)
   10900:	48b5                	li	a7,13
   10902:	00000073          	ecall
   10906:	87aa                	mv	a5,a0
   10908:	fef42623          	sw	a5,-20(s0)
   1090c:	fec42783          	lw	a5,-20(s0)
   10910:	853e                	mv	a0,a5
   10912:	7462                	ld	s0,56(sp)
   10914:	6121                	add	sp,sp,64
   10916:	8082                	ret

0000000000010918 <_Z15rev_removexattrPKcS0_>:
   10918:	7179                	add	sp,sp,-48
   1091a:	f422                	sd	s0,40(sp)
   1091c:	1800                	add	s0,sp,48
   1091e:	fca43c23          	sd	a0,-40(s0)
   10922:	fcb43823          	sd	a1,-48(s0)
   10926:	48b9                	li	a7,14
   10928:	00000073          	ecall
   1092c:	87aa                	mv	a5,a0
   1092e:	fef42623          	sw	a5,-20(s0)
   10932:	fec42783          	lw	a5,-20(s0)
   10936:	853e                	mv	a0,a5
   10938:	7422                	ld	s0,40(sp)
   1093a:	6145                	add	sp,sp,48
   1093c:	8082                	ret

000000000001093e <_Z16rev_lremovexattrPKcS0_>:
   1093e:	7179                	add	sp,sp,-48
   10940:	f422                	sd	s0,40(sp)
   10942:	1800                	add	s0,sp,48
   10944:	fca43c23          	sd	a0,-40(s0)
   10948:	fcb43823          	sd	a1,-48(s0)
   1094c:	48bd                	li	a7,15
   1094e:	00000073          	ecall
   10952:	87aa                	mv	a5,a0
   10954:	fef42623          	sw	a5,-20(s0)
   10958:	fec42783          	lw	a5,-20(s0)
   1095c:	853e                	mv	a0,a5
   1095e:	7422                	ld	s0,40(sp)
   10960:	6145                	add	sp,sp,48
   10962:	8082                	ret

0000000000010964 <_Z16rev_fremovexattriPKc>:
   10964:	7179                	add	sp,sp,-48
   10966:	f422                	sd	s0,40(sp)
   10968:	1800                	add	s0,sp,48
   1096a:	87aa                	mv	a5,a0
   1096c:	fcb43823          	sd	a1,-48(s0)
   10970:	fcf42e23          	sw	a5,-36(s0)
   10974:	48c1                	li	a7,16
   10976:	00000073          	ecall
   1097a:	87aa                	mv	a5,a0
   1097c:	fef42623          	sw	a5,-20(s0)
   10980:	fec42783          	lw	a5,-20(s0)
   10984:	853e                	mv	a0,a5
   10986:	7422                	ld	s0,40(sp)
   10988:	6145                	add	sp,sp,48
   1098a:	8082                	ret

000000000001098c <_Z10rev_getcwdPcm>:
   1098c:	7179                	add	sp,sp,-48
   1098e:	f422                	sd	s0,40(sp)
   10990:	1800                	add	s0,sp,48
   10992:	fca43c23          	sd	a0,-40(s0)
   10996:	fcb43823          	sd	a1,-48(s0)
   1099a:	48c5                	li	a7,17
   1099c:	00000073          	ecall
   109a0:	87aa                	mv	a5,a0
   109a2:	fef42623          	sw	a5,-20(s0)
   109a6:	fec42783          	lw	a5,-20(s0)
   109aa:	853e                	mv	a0,a5
   109ac:	7422                	ld	s0,40(sp)
   109ae:	6145                	add	sp,sp,48
   109b0:	8082                	ret

00000000000109b2 <_Z18rev_lookup_dcookiemPcm>:
   109b2:	7139                	add	sp,sp,-64
   109b4:	fc22                	sd	s0,56(sp)
   109b6:	0080                	add	s0,sp,64
   109b8:	fca43c23          	sd	a0,-40(s0)
   109bc:	fcb43823          	sd	a1,-48(s0)
   109c0:	fcc43423          	sd	a2,-56(s0)
   109c4:	48c9                	li	a7,18
   109c6:	00000073          	ecall
   109ca:	87aa                	mv	a5,a0
   109cc:	fef42623          	sw	a5,-20(s0)
   109d0:	fec42783          	lw	a5,-20(s0)
   109d4:	853e                	mv	a0,a5
   109d6:	7462                	ld	s0,56(sp)
   109d8:	6121                	add	sp,sp,64
   109da:	8082                	ret

00000000000109dc <_Z12rev_eventfd2ji>:
   109dc:	7179                	add	sp,sp,-48
   109de:	f422                	sd	s0,40(sp)
   109e0:	1800                	add	s0,sp,48
   109e2:	87aa                	mv	a5,a0
   109e4:	872e                	mv	a4,a1
   109e6:	fcf42e23          	sw	a5,-36(s0)
   109ea:	87ba                	mv	a5,a4
   109ec:	fcf42c23          	sw	a5,-40(s0)
   109f0:	48cd                	li	a7,19
   109f2:	00000073          	ecall
   109f6:	87aa                	mv	a5,a0
   109f8:	fef42623          	sw	a5,-20(s0)
   109fc:	fec42783          	lw	a5,-20(s0)
   10a00:	853e                	mv	a0,a5
   10a02:	7422                	ld	s0,40(sp)
   10a04:	6145                	add	sp,sp,48
   10a06:	8082                	ret

0000000000010a08 <_Z17rev_epoll_create1i>:
   10a08:	7179                	add	sp,sp,-48
   10a0a:	f422                	sd	s0,40(sp)
   10a0c:	1800                	add	s0,sp,48
   10a0e:	87aa                	mv	a5,a0
   10a10:	fcf42e23          	sw	a5,-36(s0)
   10a14:	48d1                	li	a7,20
   10a16:	00000073          	ecall
   10a1a:	87aa                	mv	a5,a0
   10a1c:	fef42623          	sw	a5,-20(s0)
   10a20:	fec42783          	lw	a5,-20(s0)
   10a24:	853e                	mv	a0,a5
   10a26:	7422                	ld	s0,40(sp)
   10a28:	6145                	add	sp,sp,48
   10a2a:	8082                	ret

0000000000010a2c <_Z13rev_epoll_ctliiiP11epoll_event>:
   10a2c:	7139                	add	sp,sp,-64
   10a2e:	fc22                	sd	s0,56(sp)
   10a30:	0080                	add	s0,sp,64
   10a32:	87aa                	mv	a5,a0
   10a34:	8732                	mv	a4,a2
   10a36:	fcd43423          	sd	a3,-56(s0)
   10a3a:	fcf42e23          	sw	a5,-36(s0)
   10a3e:	87ae                	mv	a5,a1
   10a40:	fcf42c23          	sw	a5,-40(s0)
   10a44:	87ba                	mv	a5,a4
   10a46:	fcf42a23          	sw	a5,-44(s0)
   10a4a:	48d5                	li	a7,21
   10a4c:	00000073          	ecall
   10a50:	87aa                	mv	a5,a0
   10a52:	fef42623          	sw	a5,-20(s0)
   10a56:	fec42783          	lw	a5,-20(s0)
   10a5a:	853e                	mv	a0,a5
   10a5c:	7462                	ld	s0,56(sp)
   10a5e:	6121                	add	sp,sp,64
   10a60:	8082                	ret

0000000000010a62 <_Z15rev_epoll_pwaitiP11epoll_eventiiPKmm>:
   10a62:	715d                	add	sp,sp,-80
   10a64:	e4a2                	sd	s0,72(sp)
   10a66:	0880                	add	s0,sp,80
   10a68:	fcb43823          	sd	a1,-48(s0)
   10a6c:	fce43023          	sd	a4,-64(s0)
   10a70:	faf43c23          	sd	a5,-72(s0)
   10a74:	87aa                	mv	a5,a0
   10a76:	fcf42e23          	sw	a5,-36(s0)
   10a7a:	87b2                	mv	a5,a2
   10a7c:	fcf42c23          	sw	a5,-40(s0)
   10a80:	87b6                	mv	a5,a3
   10a82:	fcf42623          	sw	a5,-52(s0)
   10a86:	48d9                	li	a7,22
   10a88:	00000073          	ecall
   10a8c:	87aa                	mv	a5,a0
   10a8e:	fef42623          	sw	a5,-20(s0)
   10a92:	fec42783          	lw	a5,-20(s0)
   10a96:	853e                	mv	a0,a5
   10a98:	6426                	ld	s0,72(sp)
   10a9a:	6161                	add	sp,sp,80
   10a9c:	8082                	ret

0000000000010a9e <_Z7rev_dupj>:
   10a9e:	7179                	add	sp,sp,-48
   10aa0:	f422                	sd	s0,40(sp)
   10aa2:	1800                	add	s0,sp,48
   10aa4:	87aa                	mv	a5,a0
   10aa6:	fcf42e23          	sw	a5,-36(s0)
   10aaa:	48dd                	li	a7,23
   10aac:	00000073          	ecall
   10ab0:	87aa                	mv	a5,a0
   10ab2:	fef42623          	sw	a5,-20(s0)
   10ab6:	fec42783          	lw	a5,-20(s0)
   10aba:	853e                	mv	a0,a5
   10abc:	7422                	ld	s0,40(sp)
   10abe:	6145                	add	sp,sp,48
   10ac0:	8082                	ret

0000000000010ac2 <_Z8rev_dup3jji>:
   10ac2:	7179                	add	sp,sp,-48
   10ac4:	f422                	sd	s0,40(sp)
   10ac6:	1800                	add	s0,sp,48
   10ac8:	87aa                	mv	a5,a0
   10aca:	86ae                	mv	a3,a1
   10acc:	8732                	mv	a4,a2
   10ace:	fcf42e23          	sw	a5,-36(s0)
   10ad2:	87b6                	mv	a5,a3
   10ad4:	fcf42c23          	sw	a5,-40(s0)
   10ad8:	87ba                	mv	a5,a4
   10ada:	fcf42a23          	sw	a5,-44(s0)
   10ade:	48e1                	li	a7,24
   10ae0:	00000073          	ecall
   10ae4:	87aa                	mv	a5,a0
   10ae6:	fef42623          	sw	a5,-20(s0)
   10aea:	fec42783          	lw	a5,-20(s0)
   10aee:	853e                	mv	a0,a5
   10af0:	7422                	ld	s0,40(sp)
   10af2:	6145                	add	sp,sp,48
   10af4:	8082                	ret

0000000000010af6 <_Z11rev_fcntl64jjm>:
   10af6:	7179                	add	sp,sp,-48
   10af8:	f422                	sd	s0,40(sp)
   10afa:	1800                	add	s0,sp,48
   10afc:	87aa                	mv	a5,a0
   10afe:	872e                	mv	a4,a1
   10b00:	fcc43823          	sd	a2,-48(s0)
   10b04:	fcf42e23          	sw	a5,-36(s0)
   10b08:	87ba                	mv	a5,a4
   10b0a:	fcf42c23          	sw	a5,-40(s0)
   10b0e:	48e5                	li	a7,25
   10b10:	00000073          	ecall
   10b14:	87aa                	mv	a5,a0
   10b16:	fef42623          	sw	a5,-20(s0)
   10b1a:	fec42783          	lw	a5,-20(s0)
   10b1e:	853e                	mv	a0,a5
   10b20:	7422                	ld	s0,40(sp)
   10b22:	6145                	add	sp,sp,48
   10b24:	8082                	ret

0000000000010b26 <_Z17rev_inotify_init1i>:
   10b26:	7179                	add	sp,sp,-48
   10b28:	f422                	sd	s0,40(sp)
   10b2a:	1800                	add	s0,sp,48
   10b2c:	87aa                	mv	a5,a0
   10b2e:	fcf42e23          	sw	a5,-36(s0)
   10b32:	48e9                	li	a7,26
   10b34:	00000073          	ecall
   10b38:	87aa                	mv	a5,a0
   10b3a:	fef42623          	sw	a5,-20(s0)
   10b3e:	fec42783          	lw	a5,-20(s0)
   10b42:	853e                	mv	a0,a5
   10b44:	7422                	ld	s0,40(sp)
   10b46:	6145                	add	sp,sp,48
   10b48:	8082                	ret

0000000000010b4a <_Z21rev_inotify_add_watchiPKcj>:
   10b4a:	7179                	add	sp,sp,-48
   10b4c:	f422                	sd	s0,40(sp)
   10b4e:	1800                	add	s0,sp,48
   10b50:	87aa                	mv	a5,a0
   10b52:	fcb43823          	sd	a1,-48(s0)
   10b56:	8732                	mv	a4,a2
   10b58:	fcf42e23          	sw	a5,-36(s0)
   10b5c:	87ba                	mv	a5,a4
   10b5e:	fcf42c23          	sw	a5,-40(s0)
   10b62:	48ed                	li	a7,27
   10b64:	00000073          	ecall
   10b68:	87aa                	mv	a5,a0
   10b6a:	fef42623          	sw	a5,-20(s0)
   10b6e:	fec42783          	lw	a5,-20(s0)
   10b72:	853e                	mv	a0,a5
   10b74:	7422                	ld	s0,40(sp)
   10b76:	6145                	add	sp,sp,48
   10b78:	8082                	ret

0000000000010b7a <_Z20rev_inotify_rm_watchii>:
   10b7a:	7179                	add	sp,sp,-48
   10b7c:	f422                	sd	s0,40(sp)
   10b7e:	1800                	add	s0,sp,48
   10b80:	87aa                	mv	a5,a0
   10b82:	872e                	mv	a4,a1
   10b84:	fcf42e23          	sw	a5,-36(s0)
   10b88:	87ba                	mv	a5,a4
   10b8a:	fcf42c23          	sw	a5,-40(s0)
   10b8e:	48f1                	li	a7,28
   10b90:	00000073          	ecall
   10b94:	87aa                	mv	a5,a0
   10b96:	fef42623          	sw	a5,-20(s0)
   10b9a:	fec42783          	lw	a5,-20(s0)
   10b9e:	853e                	mv	a0,a5
   10ba0:	7422                	ld	s0,40(sp)
   10ba2:	6145                	add	sp,sp,48
   10ba4:	8082                	ret

0000000000010ba6 <_Z9rev_ioctljjm>:
   10ba6:	7179                	add	sp,sp,-48
   10ba8:	f422                	sd	s0,40(sp)
   10baa:	1800                	add	s0,sp,48
   10bac:	87aa                	mv	a5,a0
   10bae:	872e                	mv	a4,a1
   10bb0:	fcc43823          	sd	a2,-48(s0)
   10bb4:	fcf42e23          	sw	a5,-36(s0)
   10bb8:	87ba                	mv	a5,a4
   10bba:	fcf42c23          	sw	a5,-40(s0)
   10bbe:	48f5                	li	a7,29
   10bc0:	00000073          	ecall
   10bc4:	87aa                	mv	a5,a0
   10bc6:	fef42623          	sw	a5,-20(s0)
   10bca:	fec42783          	lw	a5,-20(s0)
   10bce:	853e                	mv	a0,a5
   10bd0:	7422                	ld	s0,40(sp)
   10bd2:	6145                	add	sp,sp,48
   10bd4:	8082                	ret

0000000000010bd6 <_Z14rev_ioprio_setiii>:
   10bd6:	7179                	add	sp,sp,-48
   10bd8:	f422                	sd	s0,40(sp)
   10bda:	1800                	add	s0,sp,48
   10bdc:	87aa                	mv	a5,a0
   10bde:	86ae                	mv	a3,a1
   10be0:	8732                	mv	a4,a2
   10be2:	fcf42e23          	sw	a5,-36(s0)
   10be6:	87b6                	mv	a5,a3
   10be8:	fcf42c23          	sw	a5,-40(s0)
   10bec:	87ba                	mv	a5,a4
   10bee:	fcf42a23          	sw	a5,-44(s0)
   10bf2:	48f9                	li	a7,30
   10bf4:	00000073          	ecall
   10bf8:	87aa                	mv	a5,a0
   10bfa:	fef42623          	sw	a5,-20(s0)
   10bfe:	fec42783          	lw	a5,-20(s0)
   10c02:	853e                	mv	a0,a5
   10c04:	7422                	ld	s0,40(sp)
   10c06:	6145                	add	sp,sp,48
   10c08:	8082                	ret

0000000000010c0a <_Z14rev_ioprio_getii>:
   10c0a:	7179                	add	sp,sp,-48
   10c0c:	f422                	sd	s0,40(sp)
   10c0e:	1800                	add	s0,sp,48
   10c10:	87aa                	mv	a5,a0
   10c12:	872e                	mv	a4,a1
   10c14:	fcf42e23          	sw	a5,-36(s0)
   10c18:	87ba                	mv	a5,a4
   10c1a:	fcf42c23          	sw	a5,-40(s0)
   10c1e:	48fd                	li	a7,31
   10c20:	00000073          	ecall
   10c24:	87aa                	mv	a5,a0
   10c26:	fef42623          	sw	a5,-20(s0)
   10c2a:	fec42783          	lw	a5,-20(s0)
   10c2e:	853e                	mv	a0,a5
   10c30:	7422                	ld	s0,40(sp)
   10c32:	6145                	add	sp,sp,48
   10c34:	8082                	ret

0000000000010c36 <_Z9rev_flockjj>:
   10c36:	7179                	add	sp,sp,-48
   10c38:	f422                	sd	s0,40(sp)
   10c3a:	1800                	add	s0,sp,48
   10c3c:	87aa                	mv	a5,a0
   10c3e:	872e                	mv	a4,a1
   10c40:	fcf42e23          	sw	a5,-36(s0)
   10c44:	87ba                	mv	a5,a4
   10c46:	fcf42c23          	sw	a5,-40(s0)
   10c4a:	02000893          	li	a7,32
   10c4e:	00000073          	ecall
   10c52:	87aa                	mv	a5,a0
   10c54:	fef42623          	sw	a5,-20(s0)
   10c58:	fec42783          	lw	a5,-20(s0)
   10c5c:	853e                	mv	a0,a5
   10c5e:	7422                	ld	s0,40(sp)
   10c60:	6145                	add	sp,sp,48
   10c62:	8082                	ret

0000000000010c64 <_Z11rev_mknodatiPKctj>:
   10c64:	7139                	add	sp,sp,-64
   10c66:	fc22                	sd	s0,56(sp)
   10c68:	0080                	add	s0,sp,64
   10c6a:	87aa                	mv	a5,a0
   10c6c:	fcb43823          	sd	a1,-48(s0)
   10c70:	8736                	mv	a4,a3
   10c72:	fcf42e23          	sw	a5,-36(s0)
   10c76:	87b2                	mv	a5,a2
   10c78:	fcf41d23          	sh	a5,-38(s0)
   10c7c:	87ba                	mv	a5,a4
   10c7e:	fcf42623          	sw	a5,-52(s0)
   10c82:	02100893          	li	a7,33
   10c86:	00000073          	ecall
   10c8a:	87aa                	mv	a5,a0
   10c8c:	fef42623          	sw	a5,-20(s0)
   10c90:	fec42783          	lw	a5,-20(s0)
   10c94:	853e                	mv	a0,a5
   10c96:	7462                	ld	s0,56(sp)
   10c98:	6121                	add	sp,sp,64
   10c9a:	8082                	ret

0000000000010c9c <_Z11rev_mkdiratiPKct>:
   10c9c:	7179                	add	sp,sp,-48
   10c9e:	f422                	sd	s0,40(sp)
   10ca0:	1800                	add	s0,sp,48
   10ca2:	87aa                	mv	a5,a0
   10ca4:	fcb43823          	sd	a1,-48(s0)
   10ca8:	8732                	mv	a4,a2
   10caa:	fcf42e23          	sw	a5,-36(s0)
   10cae:	87ba                	mv	a5,a4
   10cb0:	fcf41d23          	sh	a5,-38(s0)
   10cb4:	02200893          	li	a7,34
   10cb8:	00000073          	ecall
   10cbc:	87aa                	mv	a5,a0
   10cbe:	fef42623          	sw	a5,-20(s0)
   10cc2:	fec42783          	lw	a5,-20(s0)
   10cc6:	853e                	mv	a0,a5
   10cc8:	7422                	ld	s0,40(sp)
   10cca:	6145                	add	sp,sp,48
   10ccc:	8082                	ret

0000000000010cce <_Z12rev_unlinkatiPKci>:
   10cce:	7179                	add	sp,sp,-48
   10cd0:	f422                	sd	s0,40(sp)
   10cd2:	1800                	add	s0,sp,48
   10cd4:	87aa                	mv	a5,a0
   10cd6:	fcb43823          	sd	a1,-48(s0)
   10cda:	8732                	mv	a4,a2
   10cdc:	fcf42e23          	sw	a5,-36(s0)
   10ce0:	87ba                	mv	a5,a4
   10ce2:	fcf42c23          	sw	a5,-40(s0)
   10ce6:	02300893          	li	a7,35
   10cea:	00000073          	ecall
   10cee:	87aa                	mv	a5,a0
   10cf0:	fef42623          	sw	a5,-20(s0)
   10cf4:	fec42783          	lw	a5,-20(s0)
   10cf8:	853e                	mv	a0,a5
   10cfa:	7422                	ld	s0,40(sp)
   10cfc:	6145                	add	sp,sp,48
   10cfe:	8082                	ret

0000000000010d00 <_Z13rev_symlinkatPKciS0_>:
   10d00:	7139                	add	sp,sp,-64
   10d02:	fc22                	sd	s0,56(sp)
   10d04:	0080                	add	s0,sp,64
   10d06:	fca43c23          	sd	a0,-40(s0)
   10d0a:	87ae                	mv	a5,a1
   10d0c:	fcc43423          	sd	a2,-56(s0)
   10d10:	fcf42a23          	sw	a5,-44(s0)
   10d14:	02400893          	li	a7,36
   10d18:	00000073          	ecall
   10d1c:	87aa                	mv	a5,a0
   10d1e:	fef42623          	sw	a5,-20(s0)
   10d22:	fec42783          	lw	a5,-20(s0)
   10d26:	853e                	mv	a0,a5
   10d28:	7462                	ld	s0,56(sp)
   10d2a:	6121                	add	sp,sp,64
   10d2c:	8082                	ret

0000000000010d2e <_Z12rev_renameatiPKciS0_>:
   10d2e:	7139                	add	sp,sp,-64
   10d30:	fc22                	sd	s0,56(sp)
   10d32:	0080                	add	s0,sp,64
   10d34:	87aa                	mv	a5,a0
   10d36:	fcb43823          	sd	a1,-48(s0)
   10d3a:	8732                	mv	a4,a2
   10d3c:	fcd43423          	sd	a3,-56(s0)
   10d40:	fcf42e23          	sw	a5,-36(s0)
   10d44:	87ba                	mv	a5,a4
   10d46:	fcf42c23          	sw	a5,-40(s0)
   10d4a:	02600893          	li	a7,38
   10d4e:	00000073          	ecall
   10d52:	87aa                	mv	a5,a0
   10d54:	fef42623          	sw	a5,-20(s0)
   10d58:	fec42783          	lw	a5,-20(s0)
   10d5c:	853e                	mv	a0,a5
   10d5e:	7462                	ld	s0,56(sp)
   10d60:	6121                	add	sp,sp,64
   10d62:	8082                	ret

0000000000010d64 <_Z10rev_umountPci>:
   10d64:	7179                	add	sp,sp,-48
   10d66:	f422                	sd	s0,40(sp)
   10d68:	1800                	add	s0,sp,48
   10d6a:	fca43c23          	sd	a0,-40(s0)
   10d6e:	87ae                	mv	a5,a1
   10d70:	fcf42a23          	sw	a5,-44(s0)
   10d74:	02700893          	li	a7,39
   10d78:	00000073          	ecall
   10d7c:	87aa                	mv	a5,a0
   10d7e:	fef42623          	sw	a5,-20(s0)
   10d82:	fec42783          	lw	a5,-20(s0)
   10d86:	853e                	mv	a0,a5
   10d88:	7422                	ld	s0,40(sp)
   10d8a:	6145                	add	sp,sp,48
   10d8c:	8082                	ret

0000000000010d8e <_Z14rev_pivot_rootPKcS0_>:
   10d8e:	7179                	add	sp,sp,-48
   10d90:	f422                	sd	s0,40(sp)
   10d92:	1800                	add	s0,sp,48
   10d94:	fca43c23          	sd	a0,-40(s0)
   10d98:	fcb43823          	sd	a1,-48(s0)
   10d9c:	02900893          	li	a7,41
   10da0:	00000073          	ecall
   10da4:	87aa                	mv	a5,a0
   10da6:	fef42623          	sw	a5,-20(s0)
   10daa:	fec42783          	lw	a5,-20(s0)
   10dae:	853e                	mv	a0,a5
   10db0:	7422                	ld	s0,40(sp)
   10db2:	6145                	add	sp,sp,48
   10db4:	8082                	ret

0000000000010db6 <_Z14rev_ni_syscallv>:
   10db6:	1101                	add	sp,sp,-32
   10db8:	ec22                	sd	s0,24(sp)
   10dba:	1000                	add	s0,sp,32
   10dbc:	02a00893          	li	a7,42
   10dc0:	00000073          	ecall
   10dc4:	87aa                	mv	a5,a0
   10dc6:	fef42623          	sw	a5,-20(s0)
   10dca:	fec42783          	lw	a5,-20(s0)
   10dce:	853e                	mv	a0,a5
   10dd0:	6462                	ld	s0,24(sp)
   10dd2:	6105                	add	sp,sp,32
   10dd4:	8082                	ret

0000000000010dd6 <_Z12rev_statfs64PKcmP8statfs64>:
   10dd6:	7139                	add	sp,sp,-64
   10dd8:	fc22                	sd	s0,56(sp)
   10dda:	0080                	add	s0,sp,64
   10ddc:	fca43c23          	sd	a0,-40(s0)
   10de0:	fcb43823          	sd	a1,-48(s0)
   10de4:	fcc43423          	sd	a2,-56(s0)
   10de8:	02b00893          	li	a7,43
   10dec:	00000073          	ecall
   10df0:	87aa                	mv	a5,a0
   10df2:	fef42623          	sw	a5,-20(s0)
   10df6:	fec42783          	lw	a5,-20(s0)
   10dfa:	853e                	mv	a0,a5
   10dfc:	7462                	ld	s0,56(sp)
   10dfe:	6121                	add	sp,sp,64
   10e00:	8082                	ret

0000000000010e02 <_Z13rev_fstatfs64jmP8statfs64>:
   10e02:	7139                	add	sp,sp,-64
   10e04:	fc22                	sd	s0,56(sp)
   10e06:	0080                	add	s0,sp,64
   10e08:	87aa                	mv	a5,a0
   10e0a:	fcb43823          	sd	a1,-48(s0)
   10e0e:	fcc43423          	sd	a2,-56(s0)
   10e12:	fcf42e23          	sw	a5,-36(s0)
   10e16:	02c00893          	li	a7,44
   10e1a:	00000073          	ecall
   10e1e:	87aa                	mv	a5,a0
   10e20:	fef42623          	sw	a5,-20(s0)
   10e24:	fec42783          	lw	a5,-20(s0)
   10e28:	853e                	mv	a0,a5
   10e2a:	7462                	ld	s0,56(sp)
   10e2c:	6121                	add	sp,sp,64
   10e2e:	8082                	ret

0000000000010e30 <_Z14rev_truncate64PKcl>:
   10e30:	7179                	add	sp,sp,-48
   10e32:	f422                	sd	s0,40(sp)
   10e34:	1800                	add	s0,sp,48
   10e36:	fca43c23          	sd	a0,-40(s0)
   10e3a:	fcb43823          	sd	a1,-48(s0)
   10e3e:	02d00893          	li	a7,45
   10e42:	00000073          	ecall
   10e46:	87aa                	mv	a5,a0
   10e48:	fef42623          	sw	a5,-20(s0)
   10e4c:	fec42783          	lw	a5,-20(s0)
   10e50:	853e                	mv	a0,a5
   10e52:	7422                	ld	s0,40(sp)
   10e54:	6145                	add	sp,sp,48
   10e56:	8082                	ret

0000000000010e58 <_Z15rev_ftruncate64jl>:
   10e58:	7179                	add	sp,sp,-48
   10e5a:	f422                	sd	s0,40(sp)
   10e5c:	1800                	add	s0,sp,48
   10e5e:	87aa                	mv	a5,a0
   10e60:	fcb43823          	sd	a1,-48(s0)
   10e64:	fcf42e23          	sw	a5,-36(s0)
   10e68:	02e00893          	li	a7,46
   10e6c:	00000073          	ecall
   10e70:	87aa                	mv	a5,a0
   10e72:	fef42623          	sw	a5,-20(s0)
   10e76:	fec42783          	lw	a5,-20(s0)
   10e7a:	853e                	mv	a0,a5
   10e7c:	7422                	ld	s0,40(sp)
   10e7e:	6145                	add	sp,sp,48
   10e80:	8082                	ret

0000000000010e82 <_Z13rev_fallocateiill>:
   10e82:	7139                	add	sp,sp,-64
   10e84:	fc22                	sd	s0,56(sp)
   10e86:	0080                	add	s0,sp,64
   10e88:	87aa                	mv	a5,a0
   10e8a:	872e                	mv	a4,a1
   10e8c:	fcc43823          	sd	a2,-48(s0)
   10e90:	fcd43423          	sd	a3,-56(s0)
   10e94:	fcf42e23          	sw	a5,-36(s0)
   10e98:	87ba                	mv	a5,a4
   10e9a:	fcf42c23          	sw	a5,-40(s0)
   10e9e:	02f00893          	li	a7,47
   10ea2:	00000073          	ecall
   10ea6:	87aa                	mv	a5,a0
   10ea8:	fef42623          	sw	a5,-20(s0)
   10eac:	fec42783          	lw	a5,-20(s0)
   10eb0:	853e                	mv	a0,a5
   10eb2:	7462                	ld	s0,56(sp)
   10eb4:	6121                	add	sp,sp,64
   10eb6:	8082                	ret

0000000000010eb8 <_Z13rev_faccessatiPKci>:
   10eb8:	7179                	add	sp,sp,-48
   10eba:	f422                	sd	s0,40(sp)
   10ebc:	1800                	add	s0,sp,48
   10ebe:	87aa                	mv	a5,a0
   10ec0:	fcb43823          	sd	a1,-48(s0)
   10ec4:	8732                	mv	a4,a2
   10ec6:	fcf42e23          	sw	a5,-36(s0)
   10eca:	87ba                	mv	a5,a4
   10ecc:	fcf42c23          	sw	a5,-40(s0)
   10ed0:	03000893          	li	a7,48
   10ed4:	00000073          	ecall
   10ed8:	87aa                	mv	a5,a0
   10eda:	fef42623          	sw	a5,-20(s0)
   10ede:	fec42783          	lw	a5,-20(s0)
   10ee2:	853e                	mv	a0,a5
   10ee4:	7422                	ld	s0,40(sp)
   10ee6:	6145                	add	sp,sp,48
   10ee8:	8082                	ret

0000000000010eea <_Z9rev_chdirPKc>:
   10eea:	7179                	add	sp,sp,-48
   10eec:	f422                	sd	s0,40(sp)
   10eee:	1800                	add	s0,sp,48
   10ef0:	fca43c23          	sd	a0,-40(s0)
   10ef4:	03100893          	li	a7,49
   10ef8:	00000073          	ecall
   10efc:	87aa                	mv	a5,a0
   10efe:	fef42623          	sw	a5,-20(s0)
   10f02:	fec42783          	lw	a5,-20(s0)
   10f06:	853e                	mv	a0,a5
   10f08:	7422                	ld	s0,40(sp)
   10f0a:	6145                	add	sp,sp,48
   10f0c:	8082                	ret

0000000000010f0e <_Z10rev_fchdirj>:
   10f0e:	7179                	add	sp,sp,-48
   10f10:	f422                	sd	s0,40(sp)
   10f12:	1800                	add	s0,sp,48
   10f14:	87aa                	mv	a5,a0
   10f16:	fcf42e23          	sw	a5,-36(s0)
   10f1a:	03200893          	li	a7,50
   10f1e:	00000073          	ecall
   10f22:	87aa                	mv	a5,a0
   10f24:	fef42623          	sw	a5,-20(s0)
   10f28:	fec42783          	lw	a5,-20(s0)
   10f2c:	853e                	mv	a0,a5
   10f2e:	7422                	ld	s0,40(sp)
   10f30:	6145                	add	sp,sp,48
   10f32:	8082                	ret

0000000000010f34 <_Z10rev_chrootPKc>:
   10f34:	7179                	add	sp,sp,-48
   10f36:	f422                	sd	s0,40(sp)
   10f38:	1800                	add	s0,sp,48
   10f3a:	fca43c23          	sd	a0,-40(s0)
   10f3e:	03300893          	li	a7,51
   10f42:	00000073          	ecall
   10f46:	87aa                	mv	a5,a0
   10f48:	fef42623          	sw	a5,-20(s0)
   10f4c:	fec42783          	lw	a5,-20(s0)
   10f50:	853e                	mv	a0,a5
   10f52:	7422                	ld	s0,40(sp)
   10f54:	6145                	add	sp,sp,48
   10f56:	8082                	ret

0000000000010f58 <_Z10rev_fchmodjt>:
   10f58:	7179                	add	sp,sp,-48
   10f5a:	f422                	sd	s0,40(sp)
   10f5c:	1800                	add	s0,sp,48
   10f5e:	87aa                	mv	a5,a0
   10f60:	872e                	mv	a4,a1
   10f62:	fcf42e23          	sw	a5,-36(s0)
   10f66:	87ba                	mv	a5,a4
   10f68:	fcf41d23          	sh	a5,-38(s0)
   10f6c:	03400893          	li	a7,52
   10f70:	00000073          	ecall
   10f74:	87aa                	mv	a5,a0
   10f76:	fef42623          	sw	a5,-20(s0)
   10f7a:	fec42783          	lw	a5,-20(s0)
   10f7e:	853e                	mv	a0,a5
   10f80:	7422                	ld	s0,40(sp)
   10f82:	6145                	add	sp,sp,48
   10f84:	8082                	ret

0000000000010f86 <_Z12rev_fchmodatiPKct>:
   10f86:	7179                	add	sp,sp,-48
   10f88:	f422                	sd	s0,40(sp)
   10f8a:	1800                	add	s0,sp,48
   10f8c:	87aa                	mv	a5,a0
   10f8e:	fcb43823          	sd	a1,-48(s0)
   10f92:	8732                	mv	a4,a2
   10f94:	fcf42e23          	sw	a5,-36(s0)
   10f98:	87ba                	mv	a5,a4
   10f9a:	fcf41d23          	sh	a5,-38(s0)
   10f9e:	03500893          	li	a7,53
   10fa2:	00000073          	ecall
   10fa6:	87aa                	mv	a5,a0
   10fa8:	fef42623          	sw	a5,-20(s0)
   10fac:	fec42783          	lw	a5,-20(s0)
   10fb0:	853e                	mv	a0,a5
   10fb2:	7422                	ld	s0,40(sp)
   10fb4:	6145                	add	sp,sp,48
   10fb6:	8082                	ret

0000000000010fb8 <_Z12rev_fchownatiPKctti>:
   10fb8:	7139                	add	sp,sp,-64
   10fba:	fc22                	sd	s0,56(sp)
   10fbc:	0080                	add	s0,sp,64
   10fbe:	87aa                	mv	a5,a0
   10fc0:	fcb43823          	sd	a1,-48(s0)
   10fc4:	fcf42e23          	sw	a5,-36(s0)
   10fc8:	87b2                	mv	a5,a2
   10fca:	fcf41d23          	sh	a5,-38(s0)
   10fce:	87b6                	mv	a5,a3
   10fd0:	fcf41c23          	sh	a5,-40(s0)
   10fd4:	87ba                	mv	a5,a4
   10fd6:	fcf42623          	sw	a5,-52(s0)
   10fda:	03600893          	li	a7,54
   10fde:	00000073          	ecall
   10fe2:	87aa                	mv	a5,a0
   10fe4:	fef42623          	sw	a5,-20(s0)
   10fe8:	fec42783          	lw	a5,-20(s0)
   10fec:	853e                	mv	a0,a5
   10fee:	7462                	ld	s0,56(sp)
   10ff0:	6121                	add	sp,sp,64
   10ff2:	8082                	ret

0000000000010ff4 <_Z10rev_fchownjtt>:
   10ff4:	7179                	add	sp,sp,-48
   10ff6:	f422                	sd	s0,40(sp)
   10ff8:	1800                	add	s0,sp,48
   10ffa:	87aa                	mv	a5,a0
   10ffc:	86ae                	mv	a3,a1
   10ffe:	8732                	mv	a4,a2
   11000:	fcf42e23          	sw	a5,-36(s0)
   11004:	87b6                	mv	a5,a3
   11006:	fcf41d23          	sh	a5,-38(s0)
   1100a:	87ba                	mv	a5,a4
   1100c:	fcf41c23          	sh	a5,-40(s0)
   11010:	03700893          	li	a7,55
   11014:	00000073          	ecall
   11018:	87aa                	mv	a5,a0
   1101a:	fef42623          	sw	a5,-20(s0)
   1101e:	fec42783          	lw	a5,-20(s0)
   11022:	853e                	mv	a0,a5
   11024:	7422                	ld	s0,40(sp)
   11026:	6145                	add	sp,sp,48
   11028:	8082                	ret

000000000001102a <_Z10rev_openatiPKcit>:
   1102a:	7139                	add	sp,sp,-64
   1102c:	fc22                	sd	s0,56(sp)
   1102e:	0080                	add	s0,sp,64
   11030:	87aa                	mv	a5,a0
   11032:	fcb43823          	sd	a1,-48(s0)
   11036:	8736                	mv	a4,a3
   11038:	fcf42e23          	sw	a5,-36(s0)
   1103c:	87b2                	mv	a5,a2
   1103e:	fcf42c23          	sw	a5,-40(s0)
   11042:	87ba                	mv	a5,a4
   11044:	fcf41723          	sh	a5,-50(s0)
   11048:	03800893          	li	a7,56
   1104c:	00000073          	ecall
   11050:	87aa                	mv	a5,a0
   11052:	fef42623          	sw	a5,-20(s0)
   11056:	fec42783          	lw	a5,-20(s0)
   1105a:	853e                	mv	a0,a5
   1105c:	7462                	ld	s0,56(sp)
   1105e:	6121                	add	sp,sp,64
   11060:	8082                	ret

0000000000011062 <_Z9rev_closej>:
   11062:	7179                	add	sp,sp,-48
   11064:	f422                	sd	s0,40(sp)
   11066:	1800                	add	s0,sp,48
   11068:	87aa                	mv	a5,a0
   1106a:	fcf42e23          	sw	a5,-36(s0)
   1106e:	03900893          	li	a7,57
   11072:	00000073          	ecall
   11076:	87aa                	mv	a5,a0
   11078:	fef42623          	sw	a5,-20(s0)
   1107c:	fec42783          	lw	a5,-20(s0)
   11080:	853e                	mv	a0,a5
   11082:	7422                	ld	s0,40(sp)
   11084:	6145                	add	sp,sp,48
   11086:	8082                	ret

0000000000011088 <_Z11rev_vhangupv>:
   11088:	1101                	add	sp,sp,-32
   1108a:	ec22                	sd	s0,24(sp)
   1108c:	1000                	add	s0,sp,32
   1108e:	03a00893          	li	a7,58
   11092:	00000073          	ecall
   11096:	87aa                	mv	a5,a0
   11098:	fef42623          	sw	a5,-20(s0)
   1109c:	fec42783          	lw	a5,-20(s0)
   110a0:	853e                	mv	a0,a5
   110a2:	6462                	ld	s0,24(sp)
   110a4:	6105                	add	sp,sp,32
   110a6:	8082                	ret

00000000000110a8 <_Z9rev_pipe2Pii>:
   110a8:	7179                	add	sp,sp,-48
   110aa:	f422                	sd	s0,40(sp)
   110ac:	1800                	add	s0,sp,48
   110ae:	fca43c23          	sd	a0,-40(s0)
   110b2:	87ae                	mv	a5,a1
   110b4:	fcf42a23          	sw	a5,-44(s0)
   110b8:	03b00893          	li	a7,59
   110bc:	00000073          	ecall
   110c0:	87aa                	mv	a5,a0
   110c2:	fef42623          	sw	a5,-20(s0)
   110c6:	fec42783          	lw	a5,-20(s0)
   110ca:	853e                	mv	a0,a5
   110cc:	7422                	ld	s0,40(sp)
   110ce:	6145                	add	sp,sp,48
   110d0:	8082                	ret

00000000000110d2 <_Z12rev_quotactljPKctPv>:
   110d2:	7139                	add	sp,sp,-64
   110d4:	fc22                	sd	s0,56(sp)
   110d6:	0080                	add	s0,sp,64
   110d8:	87aa                	mv	a5,a0
   110da:	fcb43823          	sd	a1,-48(s0)
   110de:	8732                	mv	a4,a2
   110e0:	fcd43423          	sd	a3,-56(s0)
   110e4:	fcf42e23          	sw	a5,-36(s0)
   110e8:	87ba                	mv	a5,a4
   110ea:	fcf41d23          	sh	a5,-38(s0)
   110ee:	03c00893          	li	a7,60
   110f2:	00000073          	ecall
   110f6:	87aa                	mv	a5,a0
   110f8:	fef42623          	sw	a5,-20(s0)
   110fc:	fec42783          	lw	a5,-20(s0)
   11100:	853e                	mv	a0,a5
   11102:	7462                	ld	s0,56(sp)
   11104:	6121                	add	sp,sp,64
   11106:	8082                	ret

0000000000011108 <_Z14rev_getdents64jP14linux_dirent64j>:
   11108:	7179                	add	sp,sp,-48
   1110a:	f422                	sd	s0,40(sp)
   1110c:	1800                	add	s0,sp,48
   1110e:	87aa                	mv	a5,a0
   11110:	fcb43823          	sd	a1,-48(s0)
   11114:	8732                	mv	a4,a2
   11116:	fcf42e23          	sw	a5,-36(s0)
   1111a:	87ba                	mv	a5,a4
   1111c:	fcf42c23          	sw	a5,-40(s0)
   11120:	03d00893          	li	a7,61
   11124:	00000073          	ecall
   11128:	87aa                	mv	a5,a0
   1112a:	fef42623          	sw	a5,-20(s0)
   1112e:	fec42783          	lw	a5,-20(s0)
   11132:	853e                	mv	a0,a5
   11134:	7422                	ld	s0,40(sp)
   11136:	6145                	add	sp,sp,48
   11138:	8082                	ret

000000000001113a <_Z10rev_llseekjmmPlj>:
   1113a:	7139                	add	sp,sp,-64
   1113c:	fc22                	sd	s0,56(sp)
   1113e:	0080                	add	s0,sp,64
   11140:	87aa                	mv	a5,a0
   11142:	fcb43823          	sd	a1,-48(s0)
   11146:	fcc43423          	sd	a2,-56(s0)
   1114a:	fcd43023          	sd	a3,-64(s0)
   1114e:	fcf42e23          	sw	a5,-36(s0)
   11152:	87ba                	mv	a5,a4
   11154:	fcf42c23          	sw	a5,-40(s0)
   11158:	03e00893          	li	a7,62
   1115c:	00000073          	ecall
   11160:	87aa                	mv	a5,a0
   11162:	fef42623          	sw	a5,-20(s0)
   11166:	fec42783          	lw	a5,-20(s0)
   1116a:	853e                	mv	a0,a5
   1116c:	7462                	ld	s0,56(sp)
   1116e:	6121                	add	sp,sp,64
   11170:	8082                	ret

0000000000011172 <_Z8rev_readjPcm>:
   11172:	7139                	add	sp,sp,-64
   11174:	fc22                	sd	s0,56(sp)
   11176:	0080                	add	s0,sp,64
   11178:	87aa                	mv	a5,a0
   1117a:	fcb43823          	sd	a1,-48(s0)
   1117e:	fcc43423          	sd	a2,-56(s0)
   11182:	fcf42e23          	sw	a5,-36(s0)
   11186:	03f00893          	li	a7,63
   1118a:	00000073          	ecall
   1118e:	87aa                	mv	a5,a0
   11190:	fef42623          	sw	a5,-20(s0)
   11194:	fec42783          	lw	a5,-20(s0)
   11198:	853e                	mv	a0,a5
   1119a:	7462                	ld	s0,56(sp)
   1119c:	6121                	add	sp,sp,64
   1119e:	8082                	ret

00000000000111a0 <_Z9rev_writejPKcm>:
   111a0:	7139                	add	sp,sp,-64
   111a2:	fc22                	sd	s0,56(sp)
   111a4:	0080                	add	s0,sp,64
   111a6:	87aa                	mv	a5,a0
   111a8:	fcb43823          	sd	a1,-48(s0)
   111ac:	fcc43423          	sd	a2,-56(s0)
   111b0:	fcf42e23          	sw	a5,-36(s0)
   111b4:	04000893          	li	a7,64
   111b8:	00000073          	ecall
   111bc:	87aa                	mv	a5,a0
   111be:	fef42623          	sw	a5,-20(s0)
   111c2:	fec42783          	lw	a5,-20(s0)
   111c6:	853e                	mv	a0,a5
   111c8:	7462                	ld	s0,56(sp)
   111ca:	6121                	add	sp,sp,64
   111cc:	8082                	ret

00000000000111ce <_Z9rev_readvmPK5iovecm>:
   111ce:	7139                	add	sp,sp,-64
   111d0:	fc22                	sd	s0,56(sp)
   111d2:	0080                	add	s0,sp,64
   111d4:	fca43c23          	sd	a0,-40(s0)
   111d8:	fcb43823          	sd	a1,-48(s0)
   111dc:	fcc43423          	sd	a2,-56(s0)
   111e0:	04100893          	li	a7,65
   111e4:	00000073          	ecall
   111e8:	87aa                	mv	a5,a0
   111ea:	fef42623          	sw	a5,-20(s0)
   111ee:	fec42783          	lw	a5,-20(s0)
   111f2:	853e                	mv	a0,a5
   111f4:	7462                	ld	s0,56(sp)
   111f6:	6121                	add	sp,sp,64
   111f8:	8082                	ret

00000000000111fa <_Z10rev_writevmPK5iovecm>:
   111fa:	7139                	add	sp,sp,-64
   111fc:	fc22                	sd	s0,56(sp)
   111fe:	0080                	add	s0,sp,64
   11200:	fca43c23          	sd	a0,-40(s0)
   11204:	fcb43823          	sd	a1,-48(s0)
   11208:	fcc43423          	sd	a2,-56(s0)
   1120c:	04200893          	li	a7,66
   11210:	00000073          	ecall
   11214:	87aa                	mv	a5,a0
   11216:	fef42623          	sw	a5,-20(s0)
   1121a:	fec42783          	lw	a5,-20(s0)
   1121e:	853e                	mv	a0,a5
   11220:	7462                	ld	s0,56(sp)
   11222:	6121                	add	sp,sp,64
   11224:	8082                	ret

0000000000011226 <_Z11rev_pread64jPcml>:
   11226:	7139                	add	sp,sp,-64
   11228:	fc22                	sd	s0,56(sp)
   1122a:	0080                	add	s0,sp,64
   1122c:	87aa                	mv	a5,a0
   1122e:	fcb43823          	sd	a1,-48(s0)
   11232:	fcc43423          	sd	a2,-56(s0)
   11236:	fcd43023          	sd	a3,-64(s0)
   1123a:	fcf42e23          	sw	a5,-36(s0)
   1123e:	04300893          	li	a7,67
   11242:	00000073          	ecall
   11246:	87aa                	mv	a5,a0
   11248:	fef42623          	sw	a5,-20(s0)
   1124c:	fec42783          	lw	a5,-20(s0)
   11250:	853e                	mv	a0,a5
   11252:	7462                	ld	s0,56(sp)
   11254:	6121                	add	sp,sp,64
   11256:	8082                	ret

0000000000011258 <_Z12rev_pwrite64jPKcml>:
   11258:	7139                	add	sp,sp,-64
   1125a:	fc22                	sd	s0,56(sp)
   1125c:	0080                	add	s0,sp,64
   1125e:	87aa                	mv	a5,a0
   11260:	fcb43823          	sd	a1,-48(s0)
   11264:	fcc43423          	sd	a2,-56(s0)
   11268:	fcd43023          	sd	a3,-64(s0)
   1126c:	fcf42e23          	sw	a5,-36(s0)
   11270:	04400893          	li	a7,68
   11274:	00000073          	ecall
   11278:	87aa                	mv	a5,a0
   1127a:	fef42623          	sw	a5,-20(s0)
   1127e:	fec42783          	lw	a5,-20(s0)
   11282:	853e                	mv	a0,a5
   11284:	7462                	ld	s0,56(sp)
   11286:	6121                	add	sp,sp,64
   11288:	8082                	ret

000000000001128a <_Z10rev_preadvmPK5iovecmmm>:
   1128a:	715d                	add	sp,sp,-80
   1128c:	e4a2                	sd	s0,72(sp)
   1128e:	0880                	add	s0,sp,80
   11290:	fca43c23          	sd	a0,-40(s0)
   11294:	fcb43823          	sd	a1,-48(s0)
   11298:	fcc43423          	sd	a2,-56(s0)
   1129c:	fcd43023          	sd	a3,-64(s0)
   112a0:	fae43c23          	sd	a4,-72(s0)
   112a4:	04500893          	li	a7,69
   112a8:	00000073          	ecall
   112ac:	87aa                	mv	a5,a0
   112ae:	fef42623          	sw	a5,-20(s0)
   112b2:	fec42783          	lw	a5,-20(s0)
   112b6:	853e                	mv	a0,a5
   112b8:	6426                	ld	s0,72(sp)
   112ba:	6161                	add	sp,sp,80
   112bc:	8082                	ret

00000000000112be <_Z11rev_pwritevmPK5iovecmmm>:
   112be:	715d                	add	sp,sp,-80
   112c0:	e4a2                	sd	s0,72(sp)
   112c2:	0880                	add	s0,sp,80
   112c4:	fca43c23          	sd	a0,-40(s0)
   112c8:	fcb43823          	sd	a1,-48(s0)
   112cc:	fcc43423          	sd	a2,-56(s0)
   112d0:	fcd43023          	sd	a3,-64(s0)
   112d4:	fae43c23          	sd	a4,-72(s0)
   112d8:	04600893          	li	a7,70
   112dc:	00000073          	ecall
   112e0:	87aa                	mv	a5,a0
   112e2:	fef42623          	sw	a5,-20(s0)
   112e6:	fec42783          	lw	a5,-20(s0)
   112ea:	853e                	mv	a0,a5
   112ec:	6426                	ld	s0,72(sp)
   112ee:	6161                	add	sp,sp,80
   112f0:	8082                	ret

00000000000112f2 <_Z14rev_sendfile64iiPlm>:
   112f2:	7139                	add	sp,sp,-64
   112f4:	fc22                	sd	s0,56(sp)
   112f6:	0080                	add	s0,sp,64
   112f8:	87aa                	mv	a5,a0
   112fa:	872e                	mv	a4,a1
   112fc:	fcc43823          	sd	a2,-48(s0)
   11300:	fcd43423          	sd	a3,-56(s0)
   11304:	fcf42e23          	sw	a5,-36(s0)
   11308:	87ba                	mv	a5,a4
   1130a:	fcf42c23          	sw	a5,-40(s0)
   1130e:	04700893          	li	a7,71
   11312:	00000073          	ecall
   11316:	87aa                	mv	a5,a0
   11318:	fef42623          	sw	a5,-20(s0)
   1131c:	fec42783          	lw	a5,-20(s0)
   11320:	853e                	mv	a0,a5
   11322:	7462                	ld	s0,56(sp)
   11324:	6121                	add	sp,sp,64
   11326:	8082                	ret

0000000000011328 <_Z19rev_pselect6_time32iP6fd_setS0_S0_P14old_timespec32Pv>:
   11328:	715d                	add	sp,sp,-80
   1132a:	e4a2                	sd	s0,72(sp)
   1132c:	0880                	add	s0,sp,80
   1132e:	fcb43823          	sd	a1,-48(s0)
   11332:	fcc43423          	sd	a2,-56(s0)
   11336:	fcd43023          	sd	a3,-64(s0)
   1133a:	fae43c23          	sd	a4,-72(s0)
   1133e:	faf43823          	sd	a5,-80(s0)
   11342:	87aa                	mv	a5,a0
   11344:	fcf42e23          	sw	a5,-36(s0)
   11348:	04800893          	li	a7,72
   1134c:	00000073          	ecall
   11350:	87aa                	mv	a5,a0
   11352:	fef42623          	sw	a5,-20(s0)
   11356:	fec42783          	lw	a5,-20(s0)
   1135a:	853e                	mv	a0,a5
   1135c:	6426                	ld	s0,72(sp)
   1135e:	6161                	add	sp,sp,80
   11360:	8082                	ret

0000000000011362 <_Z16rev_ppoll_time32P6pollfdjP14old_timespec32PKmm>:
   11362:	715d                	add	sp,sp,-80
   11364:	e4a2                	sd	s0,72(sp)
   11366:	0880                	add	s0,sp,80
   11368:	fca43c23          	sd	a0,-40(s0)
   1136c:	87ae                	mv	a5,a1
   1136e:	fcc43423          	sd	a2,-56(s0)
   11372:	fcd43023          	sd	a3,-64(s0)
   11376:	fae43c23          	sd	a4,-72(s0)
   1137a:	fcf42a23          	sw	a5,-44(s0)
   1137e:	04900893          	li	a7,73
   11382:	00000073          	ecall
   11386:	87aa                	mv	a5,a0
   11388:	fef42623          	sw	a5,-20(s0)
   1138c:	fec42783          	lw	a5,-20(s0)
   11390:	853e                	mv	a0,a5
   11392:	6426                	ld	s0,72(sp)
   11394:	6161                	add	sp,sp,80
   11396:	8082                	ret

0000000000011398 <_Z13rev_signalfd4iPmmi>:
   11398:	7139                	add	sp,sp,-64
   1139a:	fc22                	sd	s0,56(sp)
   1139c:	0080                	add	s0,sp,64
   1139e:	87aa                	mv	a5,a0
   113a0:	fcb43823          	sd	a1,-48(s0)
   113a4:	fcc43423          	sd	a2,-56(s0)
   113a8:	8736                	mv	a4,a3
   113aa:	fcf42e23          	sw	a5,-36(s0)
   113ae:	87ba                	mv	a5,a4
   113b0:	fcf42c23          	sw	a5,-40(s0)
   113b4:	04a00893          	li	a7,74
   113b8:	00000073          	ecall
   113bc:	87aa                	mv	a5,a0
   113be:	fef42623          	sw	a5,-20(s0)
   113c2:	fec42783          	lw	a5,-20(s0)
   113c6:	853e                	mv	a0,a5
   113c8:	7462                	ld	s0,56(sp)
   113ca:	6121                	add	sp,sp,64
   113cc:	8082                	ret

00000000000113ce <_Z12rev_vmspliceiPK5iovecmj>:
   113ce:	7139                	add	sp,sp,-64
   113d0:	fc22                	sd	s0,56(sp)
   113d2:	0080                	add	s0,sp,64
   113d4:	87aa                	mv	a5,a0
   113d6:	fcb43823          	sd	a1,-48(s0)
   113da:	fcc43423          	sd	a2,-56(s0)
   113de:	8736                	mv	a4,a3
   113e0:	fcf42e23          	sw	a5,-36(s0)
   113e4:	87ba                	mv	a5,a4
   113e6:	fcf42c23          	sw	a5,-40(s0)
   113ea:	04b00893          	li	a7,75
   113ee:	00000073          	ecall
   113f2:	87aa                	mv	a5,a0
   113f4:	fef42623          	sw	a5,-20(s0)
   113f8:	fec42783          	lw	a5,-20(s0)
   113fc:	853e                	mv	a0,a5
   113fe:	7462                	ld	s0,56(sp)
   11400:	6121                	add	sp,sp,64
   11402:	8082                	ret

0000000000011404 <_Z7rev_teeiimj>:
   11404:	7139                	add	sp,sp,-64
   11406:	fc22                	sd	s0,56(sp)
   11408:	0080                	add	s0,sp,64
   1140a:	87aa                	mv	a5,a0
   1140c:	fcc43823          	sd	a2,-48(s0)
   11410:	8736                	mv	a4,a3
   11412:	fcf42e23          	sw	a5,-36(s0)
   11416:	87ae                	mv	a5,a1
   11418:	fcf42c23          	sw	a5,-40(s0)
   1141c:	87ba                	mv	a5,a4
   1141e:	fcf42623          	sw	a5,-52(s0)
   11422:	04d00893          	li	a7,77
   11426:	00000073          	ecall
   1142a:	87aa                	mv	a5,a0
   1142c:	fef42623          	sw	a5,-20(s0)
   11430:	fec42783          	lw	a5,-20(s0)
   11434:	853e                	mv	a0,a5
   11436:	7462                	ld	s0,56(sp)
   11438:	6121                	add	sp,sp,64
   1143a:	8082                	ret

000000000001143c <_Z14rev_readlinkatiPKcPci>:
   1143c:	7139                	add	sp,sp,-64
   1143e:	fc22                	sd	s0,56(sp)
   11440:	0080                	add	s0,sp,64
   11442:	87aa                	mv	a5,a0
   11444:	fcb43823          	sd	a1,-48(s0)
   11448:	fcc43423          	sd	a2,-56(s0)
   1144c:	8736                	mv	a4,a3
   1144e:	fcf42e23          	sw	a5,-36(s0)
   11452:	87ba                	mv	a5,a4
   11454:	fcf42c23          	sw	a5,-40(s0)
   11458:	04e00893          	li	a7,78
   1145c:	00000073          	ecall
   11460:	87aa                	mv	a5,a0
   11462:	fef42623          	sw	a5,-20(s0)
   11466:	fec42783          	lw	a5,-20(s0)
   1146a:	853e                	mv	a0,a5
   1146c:	7462                	ld	s0,56(sp)
   1146e:	6121                	add	sp,sp,64
   11470:	8082                	ret

0000000000011472 <_Z14rev_newfstatatiPKcP4stati>:
   11472:	7139                	add	sp,sp,-64
   11474:	fc22                	sd	s0,56(sp)
   11476:	0080                	add	s0,sp,64
   11478:	87aa                	mv	a5,a0
   1147a:	fcb43823          	sd	a1,-48(s0)
   1147e:	fcc43423          	sd	a2,-56(s0)
   11482:	8736                	mv	a4,a3
   11484:	fcf42e23          	sw	a5,-36(s0)
   11488:	87ba                	mv	a5,a4
   1148a:	fcf42c23          	sw	a5,-40(s0)
   1148e:	04f00893          	li	a7,79
   11492:	00000073          	ecall
   11496:	87aa                	mv	a5,a0
   11498:	fef42623          	sw	a5,-20(s0)
   1149c:	fec42783          	lw	a5,-20(s0)
   114a0:	853e                	mv	a0,a5
   114a2:	7462                	ld	s0,56(sp)
   114a4:	6121                	add	sp,sp,64
   114a6:	8082                	ret

00000000000114a8 <_Z12rev_newfstatjP4stat>:
   114a8:	7179                	add	sp,sp,-48
   114aa:	f422                	sd	s0,40(sp)
   114ac:	1800                	add	s0,sp,48
   114ae:	87aa                	mv	a5,a0
   114b0:	fcb43823          	sd	a1,-48(s0)
   114b4:	fcf42e23          	sw	a5,-36(s0)
   114b8:	05000893          	li	a7,80
   114bc:	00000073          	ecall
   114c0:	87aa                	mv	a5,a0
   114c2:	fef42623          	sw	a5,-20(s0)
   114c6:	fec42783          	lw	a5,-20(s0)
   114ca:	853e                	mv	a0,a5
   114cc:	7422                	ld	s0,40(sp)
   114ce:	6145                	add	sp,sp,48
   114d0:	8082                	ret

00000000000114d2 <_Z8rev_syncv>:
   114d2:	1101                	add	sp,sp,-32
   114d4:	ec22                	sd	s0,24(sp)
   114d6:	1000                	add	s0,sp,32
   114d8:	05100893          	li	a7,81
   114dc:	00000073          	ecall
   114e0:	87aa                	mv	a5,a0
   114e2:	fef42623          	sw	a5,-20(s0)
   114e6:	fec42783          	lw	a5,-20(s0)
   114ea:	853e                	mv	a0,a5
   114ec:	6462                	ld	s0,24(sp)
   114ee:	6105                	add	sp,sp,32
   114f0:	8082                	ret

00000000000114f2 <_Z9rev_fsyncj>:
   114f2:	7179                	add	sp,sp,-48
   114f4:	f422                	sd	s0,40(sp)
   114f6:	1800                	add	s0,sp,48
   114f8:	87aa                	mv	a5,a0
   114fa:	fcf42e23          	sw	a5,-36(s0)
   114fe:	05200893          	li	a7,82
   11502:	00000073          	ecall
   11506:	87aa                	mv	a5,a0
   11508:	fef42623          	sw	a5,-20(s0)
   1150c:	fec42783          	lw	a5,-20(s0)
   11510:	853e                	mv	a0,a5
   11512:	7422                	ld	s0,40(sp)
   11514:	6145                	add	sp,sp,48
   11516:	8082                	ret

0000000000011518 <_Z13rev_fdatasyncj>:
   11518:	7179                	add	sp,sp,-48
   1151a:	f422                	sd	s0,40(sp)
   1151c:	1800                	add	s0,sp,48
   1151e:	87aa                	mv	a5,a0
   11520:	fcf42e23          	sw	a5,-36(s0)
   11524:	05300893          	li	a7,83
   11528:	00000073          	ecall
   1152c:	87aa                	mv	a5,a0
   1152e:	fef42623          	sw	a5,-20(s0)
   11532:	fec42783          	lw	a5,-20(s0)
   11536:	853e                	mv	a0,a5
   11538:	7422                	ld	s0,40(sp)
   1153a:	6145                	add	sp,sp,48
   1153c:	8082                	ret

000000000001153e <_Z20rev_sync_file_range2ijll>:
   1153e:	7139                	add	sp,sp,-64
   11540:	fc22                	sd	s0,56(sp)
   11542:	0080                	add	s0,sp,64
   11544:	87aa                	mv	a5,a0
   11546:	872e                	mv	a4,a1
   11548:	fcc43823          	sd	a2,-48(s0)
   1154c:	fcd43423          	sd	a3,-56(s0)
   11550:	fcf42e23          	sw	a5,-36(s0)
   11554:	87ba                	mv	a5,a4
   11556:	fcf42c23          	sw	a5,-40(s0)
   1155a:	05400893          	li	a7,84
   1155e:	00000073          	ecall
   11562:	87aa                	mv	a5,a0
   11564:	fef42623          	sw	a5,-20(s0)
   11568:	fec42783          	lw	a5,-20(s0)
   1156c:	853e                	mv	a0,a5
   1156e:	7462                	ld	s0,56(sp)
   11570:	6121                	add	sp,sp,64
   11572:	8082                	ret

0000000000011574 <_Z19rev_sync_file_rangeillj>:
   11574:	7139                	add	sp,sp,-64
   11576:	fc22                	sd	s0,56(sp)
   11578:	0080                	add	s0,sp,64
   1157a:	87aa                	mv	a5,a0
   1157c:	fcb43823          	sd	a1,-48(s0)
   11580:	fcc43423          	sd	a2,-56(s0)
   11584:	8736                	mv	a4,a3
   11586:	fcf42e23          	sw	a5,-36(s0)
   1158a:	87ba                	mv	a5,a4
   1158c:	fcf42c23          	sw	a5,-40(s0)
   11590:	05400893          	li	a7,84
   11594:	00000073          	ecall
   11598:	87aa                	mv	a5,a0
   1159a:	fef42623          	sw	a5,-20(s0)
   1159e:	fec42783          	lw	a5,-20(s0)
   115a2:	853e                	mv	a0,a5
   115a4:	7462                	ld	s0,56(sp)
   115a6:	6121                	add	sp,sp,64
   115a8:	8082                	ret

00000000000115aa <_Z18rev_timerfd_createii>:
   115aa:	7179                	add	sp,sp,-48
   115ac:	f422                	sd	s0,40(sp)
   115ae:	1800                	add	s0,sp,48
   115b0:	87aa                	mv	a5,a0
   115b2:	872e                	mv	a4,a1
   115b4:	fcf42e23          	sw	a5,-36(s0)
   115b8:	87ba                	mv	a5,a4
   115ba:	fcf42c23          	sw	a5,-40(s0)
   115be:	05500893          	li	a7,85
   115c2:	00000073          	ecall
   115c6:	87aa                	mv	a5,a0
   115c8:	fef42623          	sw	a5,-20(s0)
   115cc:	fec42783          	lw	a5,-20(s0)
   115d0:	853e                	mv	a0,a5
   115d2:	7422                	ld	s0,40(sp)
   115d4:	6145                	add	sp,sp,48
   115d6:	8082                	ret

00000000000115d8 <_Z19rev_timerfd_settimeiiPK19__kernel_itimerspecPS_>:
   115d8:	7139                	add	sp,sp,-64
   115da:	fc22                	sd	s0,56(sp)
   115dc:	0080                	add	s0,sp,64
   115de:	87aa                	mv	a5,a0
   115e0:	872e                	mv	a4,a1
   115e2:	fcc43823          	sd	a2,-48(s0)
   115e6:	fcd43423          	sd	a3,-56(s0)
   115ea:	fcf42e23          	sw	a5,-36(s0)
   115ee:	87ba                	mv	a5,a4
   115f0:	fcf42c23          	sw	a5,-40(s0)
   115f4:	05600893          	li	a7,86
   115f8:	00000073          	ecall
   115fc:	87aa                	mv	a5,a0
   115fe:	fef42623          	sw	a5,-20(s0)
   11602:	fec42783          	lw	a5,-20(s0)
   11606:	853e                	mv	a0,a5
   11608:	7462                	ld	s0,56(sp)
   1160a:	6121                	add	sp,sp,64
   1160c:	8082                	ret

000000000001160e <_Z19rev_timerfd_gettimeiP19__kernel_itimerspec>:
   1160e:	7179                	add	sp,sp,-48
   11610:	f422                	sd	s0,40(sp)
   11612:	1800                	add	s0,sp,48
   11614:	87aa                	mv	a5,a0
   11616:	fcb43823          	sd	a1,-48(s0)
   1161a:	fcf42e23          	sw	a5,-36(s0)
   1161e:	05700893          	li	a7,87
   11622:	00000073          	ecall
   11626:	87aa                	mv	a5,a0
   11628:	fef42623          	sw	a5,-20(s0)
   1162c:	fec42783          	lw	a5,-20(s0)
   11630:	853e                	mv	a0,a5
   11632:	7422                	ld	s0,40(sp)
   11634:	6145                	add	sp,sp,48
   11636:	8082                	ret

0000000000011638 <_Z13rev_utimensatiPKcP8timespeci>:
   11638:	7139                	add	sp,sp,-64
   1163a:	fc22                	sd	s0,56(sp)
   1163c:	0080                	add	s0,sp,64
   1163e:	87aa                	mv	a5,a0
   11640:	fcb43823          	sd	a1,-48(s0)
   11644:	fcc43423          	sd	a2,-56(s0)
   11648:	8736                	mv	a4,a3
   1164a:	fcf42e23          	sw	a5,-36(s0)
   1164e:	87ba                	mv	a5,a4
   11650:	fcf42c23          	sw	a5,-40(s0)
   11654:	05800893          	li	a7,88
   11658:	00000073          	ecall
   1165c:	87aa                	mv	a5,a0
   1165e:	fef42623          	sw	a5,-20(s0)
   11662:	fec42783          	lw	a5,-20(s0)
   11666:	853e                	mv	a0,a5
   11668:	7462                	ld	s0,56(sp)
   1166a:	6121                	add	sp,sp,64
   1166c:	8082                	ret

000000000001166e <_Z8rev_acctPKc>:
   1166e:	7179                	add	sp,sp,-48
   11670:	f422                	sd	s0,40(sp)
   11672:	1800                	add	s0,sp,48
   11674:	fca43c23          	sd	a0,-40(s0)
   11678:	05900893          	li	a7,89
   1167c:	00000073          	ecall
   11680:	87aa                	mv	a5,a0
   11682:	fef42623          	sw	a5,-20(s0)
   11686:	fec42783          	lw	a5,-20(s0)
   1168a:	853e                	mv	a0,a5
   1168c:	7422                	ld	s0,40(sp)
   1168e:	6145                	add	sp,sp,48
   11690:	8082                	ret

0000000000011692 <_Z10rev_capgetP24__user_cap_header_structP22__user_cap_data_struct>:
   11692:	7179                	add	sp,sp,-48
   11694:	f422                	sd	s0,40(sp)
   11696:	1800                	add	s0,sp,48
   11698:	fca43c23          	sd	a0,-40(s0)
   1169c:	fcb43823          	sd	a1,-48(s0)
   116a0:	05a00893          	li	a7,90
   116a4:	00000073          	ecall
   116a8:	87aa                	mv	a5,a0
   116aa:	fef42623          	sw	a5,-20(s0)
   116ae:	fec42783          	lw	a5,-20(s0)
   116b2:	853e                	mv	a0,a5
   116b4:	7422                	ld	s0,40(sp)
   116b6:	6145                	add	sp,sp,48
   116b8:	8082                	ret

00000000000116ba <_Z10rev_capsetP24__user_cap_header_structP22__user_cap_data_struct>:
   116ba:	7179                	add	sp,sp,-48
   116bc:	f422                	sd	s0,40(sp)
   116be:	1800                	add	s0,sp,48
   116c0:	fca43c23          	sd	a0,-40(s0)
   116c4:	fcb43823          	sd	a1,-48(s0)
   116c8:	05b00893          	li	a7,91
   116cc:	00000073          	ecall
   116d0:	87aa                	mv	a5,a0
   116d2:	fef42623          	sw	a5,-20(s0)
   116d6:	fec42783          	lw	a5,-20(s0)
   116da:	853e                	mv	a0,a5
   116dc:	7422                	ld	s0,40(sp)
   116de:	6145                	add	sp,sp,48
   116e0:	8082                	ret

00000000000116e2 <_Z15rev_personalityj>:
   116e2:	7179                	add	sp,sp,-48
   116e4:	f422                	sd	s0,40(sp)
   116e6:	1800                	add	s0,sp,48
   116e8:	87aa                	mv	a5,a0
   116ea:	fcf42e23          	sw	a5,-36(s0)
   116ee:	05c00893          	li	a7,92
   116f2:	00000073          	ecall
   116f6:	87aa                	mv	a5,a0
   116f8:	fef42623          	sw	a5,-20(s0)
   116fc:	fec42783          	lw	a5,-20(s0)
   11700:	853e                	mv	a0,a5
   11702:	7422                	ld	s0,40(sp)
   11704:	6145                	add	sp,sp,48
   11706:	8082                	ret

0000000000011708 <_Z8rev_exiti>:
   11708:	7179                	add	sp,sp,-48
   1170a:	f422                	sd	s0,40(sp)
   1170c:	1800                	add	s0,sp,48
   1170e:	87aa                	mv	a5,a0
   11710:	fcf42e23          	sw	a5,-36(s0)
   11714:	05d00893          	li	a7,93
   11718:	00000073          	ecall
   1171c:	87aa                	mv	a5,a0
   1171e:	fef42623          	sw	a5,-20(s0)
   11722:	fec42783          	lw	a5,-20(s0)
   11726:	853e                	mv	a0,a5
   11728:	7422                	ld	s0,40(sp)
   1172a:	6145                	add	sp,sp,48
   1172c:	8082                	ret

000000000001172e <_Z14rev_exit_groupi>:
   1172e:	7179                	add	sp,sp,-48
   11730:	f422                	sd	s0,40(sp)
   11732:	1800                	add	s0,sp,48
   11734:	87aa                	mv	a5,a0
   11736:	fcf42e23          	sw	a5,-36(s0)
   1173a:	05e00893          	li	a7,94
   1173e:	00000073          	ecall
   11742:	87aa                	mv	a5,a0
   11744:	fef42623          	sw	a5,-20(s0)
   11748:	fec42783          	lw	a5,-20(s0)
   1174c:	853e                	mv	a0,a5
   1174e:	7422                	ld	s0,40(sp)
   11750:	6145                	add	sp,sp,48
   11752:	8082                	ret

0000000000011754 <_Z10rev_waitidiiP7siginfoiP6rusage>:
   11754:	7139                	add	sp,sp,-64
   11756:	fc22                	sd	s0,56(sp)
   11758:	0080                	add	s0,sp,64
   1175a:	87aa                	mv	a5,a0
   1175c:	fcc43823          	sd	a2,-48(s0)
   11760:	fce43023          	sd	a4,-64(s0)
   11764:	fcf42e23          	sw	a5,-36(s0)
   11768:	87ae                	mv	a5,a1
   1176a:	fcf42c23          	sw	a5,-40(s0)
   1176e:	87b6                	mv	a5,a3
   11770:	fcf42623          	sw	a5,-52(s0)
   11774:	05f00893          	li	a7,95
   11778:	00000073          	ecall
   1177c:	87aa                	mv	a5,a0
   1177e:	fef42623          	sw	a5,-20(s0)
   11782:	fec42783          	lw	a5,-20(s0)
   11786:	853e                	mv	a0,a5
   11788:	7462                	ld	s0,56(sp)
   1178a:	6121                	add	sp,sp,64
   1178c:	8082                	ret

000000000001178e <_Z19rev_set_tid_addressPi>:
   1178e:	7179                	add	sp,sp,-48
   11790:	f422                	sd	s0,40(sp)
   11792:	1800                	add	s0,sp,48
   11794:	fca43c23          	sd	a0,-40(s0)
   11798:	06000893          	li	a7,96
   1179c:	00000073          	ecall
   117a0:	87aa                	mv	a5,a0
   117a2:	fef42623          	sw	a5,-20(s0)
   117a6:	fec42783          	lw	a5,-20(s0)
   117aa:	853e                	mv	a0,a5
   117ac:	7422                	ld	s0,40(sp)
   117ae:	6145                	add	sp,sp,48
   117b0:	8082                	ret

00000000000117b2 <_Z11rev_unsharem>:
   117b2:	7179                	add	sp,sp,-48
   117b4:	f422                	sd	s0,40(sp)
   117b6:	1800                	add	s0,sp,48
   117b8:	fca43c23          	sd	a0,-40(s0)
   117bc:	06100893          	li	a7,97
   117c0:	00000073          	ecall
   117c4:	87aa                	mv	a5,a0
   117c6:	fef42623          	sw	a5,-20(s0)
   117ca:	fec42783          	lw	a5,-20(s0)
   117ce:	853e                	mv	a0,a5
   117d0:	7422                	ld	s0,40(sp)
   117d2:	6145                	add	sp,sp,48
   117d4:	8082                	ret

00000000000117d6 <_Z19rev_set_robust_listP16robust_list_headm>:
   117d6:	7179                	add	sp,sp,-48
   117d8:	f422                	sd	s0,40(sp)
   117da:	1800                	add	s0,sp,48
   117dc:	fca43c23          	sd	a0,-40(s0)
   117e0:	fcb43823          	sd	a1,-48(s0)
   117e4:	06300893          	li	a7,99
   117e8:	00000073          	ecall
   117ec:	87aa                	mv	a5,a0
   117ee:	fef42623          	sw	a5,-20(s0)
   117f2:	fec42783          	lw	a5,-20(s0)
   117f6:	853e                	mv	a0,a5
   117f8:	7422                	ld	s0,40(sp)
   117fa:	6145                	add	sp,sp,48
   117fc:	8082                	ret

00000000000117fe <_Z19rev_get_robust_listiPP16robust_list_headPm>:
   117fe:	7139                	add	sp,sp,-64
   11800:	fc22                	sd	s0,56(sp)
   11802:	0080                	add	s0,sp,64
   11804:	87aa                	mv	a5,a0
   11806:	fcb43823          	sd	a1,-48(s0)
   1180a:	fcc43423          	sd	a2,-56(s0)
   1180e:	fcf42e23          	sw	a5,-36(s0)
   11812:	06400893          	li	a7,100
   11816:	00000073          	ecall
   1181a:	87aa                	mv	a5,a0
   1181c:	fef42623          	sw	a5,-20(s0)
   11820:	fec42783          	lw	a5,-20(s0)
   11824:	853e                	mv	a0,a5
   11826:	7462                	ld	s0,56(sp)
   11828:	6121                	add	sp,sp,64
   1182a:	8082                	ret

000000000001182c <_Z13rev_nanosleepP8timespecS0_>:
   1182c:	7179                	add	sp,sp,-48
   1182e:	f422                	sd	s0,40(sp)
   11830:	1800                	add	s0,sp,48
   11832:	fca43c23          	sd	a0,-40(s0)
   11836:	fcb43823          	sd	a1,-48(s0)
   1183a:	06500893          	li	a7,101
   1183e:	00000073          	ecall
   11842:	87aa                	mv	a5,a0
   11844:	fef42623          	sw	a5,-20(s0)
   11848:	fec42783          	lw	a5,-20(s0)
   1184c:	853e                	mv	a0,a5
   1184e:	7422                	ld	s0,40(sp)
   11850:	6145                	add	sp,sp,48
   11852:	8082                	ret

0000000000011854 <_Z13rev_getitimeriP22__kernel_old_itimerval>:
   11854:	7179                	add	sp,sp,-48
   11856:	f422                	sd	s0,40(sp)
   11858:	1800                	add	s0,sp,48
   1185a:	87aa                	mv	a5,a0
   1185c:	fcb43823          	sd	a1,-48(s0)
   11860:	fcf42e23          	sw	a5,-36(s0)
   11864:	06600893          	li	a7,102
   11868:	00000073          	ecall
   1186c:	87aa                	mv	a5,a0
   1186e:	fef42623          	sw	a5,-20(s0)
   11872:	fec42783          	lw	a5,-20(s0)
   11876:	853e                	mv	a0,a5
   11878:	7422                	ld	s0,40(sp)
   1187a:	6145                	add	sp,sp,48
   1187c:	8082                	ret

000000000001187e <_Z13rev_setitimeriP22__kernel_old_itimervalS0_>:
   1187e:	7139                	add	sp,sp,-64
   11880:	fc22                	sd	s0,56(sp)
   11882:	0080                	add	s0,sp,64
   11884:	87aa                	mv	a5,a0
   11886:	fcb43823          	sd	a1,-48(s0)
   1188a:	fcc43423          	sd	a2,-56(s0)
   1188e:	fcf42e23          	sw	a5,-36(s0)
   11892:	06700893          	li	a7,103
   11896:	00000073          	ecall
   1189a:	87aa                	mv	a5,a0
   1189c:	fef42623          	sw	a5,-20(s0)
   118a0:	fec42783          	lw	a5,-20(s0)
   118a4:	853e                	mv	a0,a5
   118a6:	7462                	ld	s0,56(sp)
   118a8:	6121                	add	sp,sp,64
   118aa:	8082                	ret

00000000000118ac <_Z14rev_kexec_loadmmP13kexec_segmentm>:
   118ac:	7139                	add	sp,sp,-64
   118ae:	fc22                	sd	s0,56(sp)
   118b0:	0080                	add	s0,sp,64
   118b2:	fca43c23          	sd	a0,-40(s0)
   118b6:	fcb43823          	sd	a1,-48(s0)
   118ba:	fcc43423          	sd	a2,-56(s0)
   118be:	fcd43023          	sd	a3,-64(s0)
   118c2:	06800893          	li	a7,104
   118c6:	00000073          	ecall
   118ca:	87aa                	mv	a5,a0
   118cc:	fef42623          	sw	a5,-20(s0)
   118d0:	fec42783          	lw	a5,-20(s0)
   118d4:	853e                	mv	a0,a5
   118d6:	7462                	ld	s0,56(sp)
   118d8:	6121                	add	sp,sp,64
   118da:	8082                	ret

00000000000118dc <_Z15rev_init_modulePvmPKc>:
   118dc:	7139                	add	sp,sp,-64
   118de:	fc22                	sd	s0,56(sp)
   118e0:	0080                	add	s0,sp,64
   118e2:	fca43c23          	sd	a0,-40(s0)
   118e6:	fcb43823          	sd	a1,-48(s0)
   118ea:	fcc43423          	sd	a2,-56(s0)
   118ee:	06900893          	li	a7,105
   118f2:	00000073          	ecall
   118f6:	87aa                	mv	a5,a0
   118f8:	fef42623          	sw	a5,-20(s0)
   118fc:	fec42783          	lw	a5,-20(s0)
   11900:	853e                	mv	a0,a5
   11902:	7462                	ld	s0,56(sp)
   11904:	6121                	add	sp,sp,64
   11906:	8082                	ret

0000000000011908 <_Z17rev_delete_modulePKcj>:
   11908:	7179                	add	sp,sp,-48
   1190a:	f422                	sd	s0,40(sp)
   1190c:	1800                	add	s0,sp,48
   1190e:	fca43c23          	sd	a0,-40(s0)
   11912:	87ae                	mv	a5,a1
   11914:	fcf42a23          	sw	a5,-44(s0)
   11918:	06a00893          	li	a7,106
   1191c:	00000073          	ecall
   11920:	87aa                	mv	a5,a0
   11922:	fef42623          	sw	a5,-20(s0)
   11926:	fec42783          	lw	a5,-20(s0)
   1192a:	853e                	mv	a0,a5
   1192c:	7422                	ld	s0,40(sp)
   1192e:	6145                	add	sp,sp,48
   11930:	8082                	ret

0000000000011932 <_Z16rev_timer_createmP8sigeventPm>:
   11932:	7139                	add	sp,sp,-64
   11934:	fc22                	sd	s0,56(sp)
   11936:	0080                	add	s0,sp,64
   11938:	fca43c23          	sd	a0,-40(s0)
   1193c:	fcb43823          	sd	a1,-48(s0)
   11940:	fcc43423          	sd	a2,-56(s0)
   11944:	06b00893          	li	a7,107
   11948:	00000073          	ecall
   1194c:	87aa                	mv	a5,a0
   1194e:	fef42623          	sw	a5,-20(s0)
   11952:	fec42783          	lw	a5,-20(s0)
   11956:	853e                	mv	a0,a5
   11958:	7462                	ld	s0,56(sp)
   1195a:	6121                	add	sp,sp,64
   1195c:	8082                	ret

000000000001195e <_Z17rev_timer_gettimemP19__kernel_itimerspec>:
   1195e:	7179                	add	sp,sp,-48
   11960:	f422                	sd	s0,40(sp)
   11962:	1800                	add	s0,sp,48
   11964:	fca43c23          	sd	a0,-40(s0)
   11968:	fcb43823          	sd	a1,-48(s0)
   1196c:	06c00893          	li	a7,108
   11970:	00000073          	ecall
   11974:	87aa                	mv	a5,a0
   11976:	fef42623          	sw	a5,-20(s0)
   1197a:	fec42783          	lw	a5,-20(s0)
   1197e:	853e                	mv	a0,a5
   11980:	7422                	ld	s0,40(sp)
   11982:	6145                	add	sp,sp,48
   11984:	8082                	ret

0000000000011986 <_Z20rev_timer_getoverrunm>:
   11986:	7179                	add	sp,sp,-48
   11988:	f422                	sd	s0,40(sp)
   1198a:	1800                	add	s0,sp,48
   1198c:	fca43c23          	sd	a0,-40(s0)
   11990:	06d00893          	li	a7,109
   11994:	00000073          	ecall
   11998:	87aa                	mv	a5,a0
   1199a:	fef42623          	sw	a5,-20(s0)
   1199e:	fec42783          	lw	a5,-20(s0)
   119a2:	853e                	mv	a0,a5
   119a4:	7422                	ld	s0,40(sp)
   119a6:	6145                	add	sp,sp,48
   119a8:	8082                	ret

00000000000119aa <_Z17rev_timer_settimemiPK19__kernel_itimerspecPS_>:
   119aa:	7139                	add	sp,sp,-64
   119ac:	fc22                	sd	s0,56(sp)
   119ae:	0080                	add	s0,sp,64
   119b0:	fca43c23          	sd	a0,-40(s0)
   119b4:	87ae                	mv	a5,a1
   119b6:	fcc43423          	sd	a2,-56(s0)
   119ba:	fcd43023          	sd	a3,-64(s0)
   119be:	fcf42a23          	sw	a5,-44(s0)
   119c2:	06e00893          	li	a7,110
   119c6:	00000073          	ecall
   119ca:	87aa                	mv	a5,a0
   119cc:	fef42623          	sw	a5,-20(s0)
   119d0:	fec42783          	lw	a5,-20(s0)
   119d4:	853e                	mv	a0,a5
   119d6:	7462                	ld	s0,56(sp)
   119d8:	6121                	add	sp,sp,64
   119da:	8082                	ret

00000000000119dc <_Z16rev_timer_deletem>:
   119dc:	7179                	add	sp,sp,-48
   119de:	f422                	sd	s0,40(sp)
   119e0:	1800                	add	s0,sp,48
   119e2:	fca43c23          	sd	a0,-40(s0)
   119e6:	06f00893          	li	a7,111
   119ea:	00000073          	ecall
   119ee:	87aa                	mv	a5,a0
   119f0:	fef42623          	sw	a5,-20(s0)
   119f4:	fec42783          	lw	a5,-20(s0)
   119f8:	853e                	mv	a0,a5
   119fa:	7422                	ld	s0,40(sp)
   119fc:	6145                	add	sp,sp,48
   119fe:	8082                	ret

0000000000011a00 <_Z17rev_clock_settimemPK8timespec>:
   11a00:	7179                	add	sp,sp,-48
   11a02:	f422                	sd	s0,40(sp)
   11a04:	1800                	add	s0,sp,48
   11a06:	fca43c23          	sd	a0,-40(s0)
   11a0a:	fcb43823          	sd	a1,-48(s0)
   11a0e:	07000893          	li	a7,112
   11a12:	00000073          	ecall
   11a16:	87aa                	mv	a5,a0
   11a18:	fef42623          	sw	a5,-20(s0)
   11a1c:	fec42783          	lw	a5,-20(s0)
   11a20:	853e                	mv	a0,a5
   11a22:	7422                	ld	s0,40(sp)
   11a24:	6145                	add	sp,sp,48
   11a26:	8082                	ret

0000000000011a28 <_Z17rev_clock_gettimemP8timespec>:
   11a28:	7179                	add	sp,sp,-48
   11a2a:	f422                	sd	s0,40(sp)
   11a2c:	1800                	add	s0,sp,48
   11a2e:	fca43c23          	sd	a0,-40(s0)
   11a32:	fcb43823          	sd	a1,-48(s0)
   11a36:	07100893          	li	a7,113
   11a3a:	00000073          	ecall
   11a3e:	87aa                	mv	a5,a0
   11a40:	fef42623          	sw	a5,-20(s0)
   11a44:	fec42783          	lw	a5,-20(s0)
   11a48:	853e                	mv	a0,a5
   11a4a:	7422                	ld	s0,40(sp)
   11a4c:	6145                	add	sp,sp,48
   11a4e:	8082                	ret

0000000000011a50 <_Z16rev_clock_getresmP8timespec>:
   11a50:	7179                	add	sp,sp,-48
   11a52:	f422                	sd	s0,40(sp)
   11a54:	1800                	add	s0,sp,48
   11a56:	fca43c23          	sd	a0,-40(s0)
   11a5a:	fcb43823          	sd	a1,-48(s0)
   11a5e:	07200893          	li	a7,114
   11a62:	00000073          	ecall
   11a66:	87aa                	mv	a5,a0
   11a68:	fef42623          	sw	a5,-20(s0)
   11a6c:	fec42783          	lw	a5,-20(s0)
   11a70:	853e                	mv	a0,a5
   11a72:	7422                	ld	s0,40(sp)
   11a74:	6145                	add	sp,sp,48
   11a76:	8082                	ret

0000000000011a78 <_Z19rev_clock_nanosleepmiPK8timespecPS_>:
   11a78:	7139                	add	sp,sp,-64
   11a7a:	fc22                	sd	s0,56(sp)
   11a7c:	0080                	add	s0,sp,64
   11a7e:	fca43c23          	sd	a0,-40(s0)
   11a82:	87ae                	mv	a5,a1
   11a84:	fcc43423          	sd	a2,-56(s0)
   11a88:	fcd43023          	sd	a3,-64(s0)
   11a8c:	fcf42a23          	sw	a5,-44(s0)
   11a90:	07300893          	li	a7,115
   11a94:	00000073          	ecall
   11a98:	87aa                	mv	a5,a0
   11a9a:	fef42623          	sw	a5,-20(s0)
   11a9e:	fec42783          	lw	a5,-20(s0)
   11aa2:	853e                	mv	a0,a5
   11aa4:	7462                	ld	s0,56(sp)
   11aa6:	6121                	add	sp,sp,64
   11aa8:	8082                	ret

0000000000011aaa <_Z10rev_syslogiPci>:
   11aaa:	7179                	add	sp,sp,-48
   11aac:	f422                	sd	s0,40(sp)
   11aae:	1800                	add	s0,sp,48
   11ab0:	87aa                	mv	a5,a0
   11ab2:	fcb43823          	sd	a1,-48(s0)
   11ab6:	8732                	mv	a4,a2
   11ab8:	fcf42e23          	sw	a5,-36(s0)
   11abc:	87ba                	mv	a5,a4
   11abe:	fcf42c23          	sw	a5,-40(s0)
   11ac2:	07400893          	li	a7,116
   11ac6:	00000073          	ecall
   11aca:	87aa                	mv	a5,a0
   11acc:	fef42623          	sw	a5,-20(s0)
   11ad0:	fec42783          	lw	a5,-20(s0)
   11ad4:	853e                	mv	a0,a5
   11ad6:	7422                	ld	s0,40(sp)
   11ad8:	6145                	add	sp,sp,48
   11ada:	8082                	ret

0000000000011adc <_Z10rev_ptracellmm>:
   11adc:	7139                	add	sp,sp,-64
   11ade:	fc22                	sd	s0,56(sp)
   11ae0:	0080                	add	s0,sp,64
   11ae2:	fca43c23          	sd	a0,-40(s0)
   11ae6:	fcb43823          	sd	a1,-48(s0)
   11aea:	fcc43423          	sd	a2,-56(s0)
   11aee:	fcd43023          	sd	a3,-64(s0)
   11af2:	07500893          	li	a7,117
   11af6:	00000073          	ecall
   11afa:	87aa                	mv	a5,a0
   11afc:	fef42623          	sw	a5,-20(s0)
   11b00:	fec42783          	lw	a5,-20(s0)
   11b04:	853e                	mv	a0,a5
   11b06:	7462                	ld	s0,56(sp)
   11b08:	6121                	add	sp,sp,64
   11b0a:	8082                	ret

0000000000011b0c <_Z18rev_sched_setparamiP11sched_param>:
   11b0c:	7179                	add	sp,sp,-48
   11b0e:	f422                	sd	s0,40(sp)
   11b10:	1800                	add	s0,sp,48
   11b12:	87aa                	mv	a5,a0
   11b14:	fcb43823          	sd	a1,-48(s0)
   11b18:	fcf42e23          	sw	a5,-36(s0)
   11b1c:	07600893          	li	a7,118
   11b20:	00000073          	ecall
   11b24:	87aa                	mv	a5,a0
   11b26:	fef42623          	sw	a5,-20(s0)
   11b2a:	fec42783          	lw	a5,-20(s0)
   11b2e:	853e                	mv	a0,a5
   11b30:	7422                	ld	s0,40(sp)
   11b32:	6145                	add	sp,sp,48
   11b34:	8082                	ret

0000000000011b36 <_Z22rev_sched_setscheduleriiP11sched_param>:
   11b36:	7179                	add	sp,sp,-48
   11b38:	f422                	sd	s0,40(sp)
   11b3a:	1800                	add	s0,sp,48
   11b3c:	87aa                	mv	a5,a0
   11b3e:	872e                	mv	a4,a1
   11b40:	fcc43823          	sd	a2,-48(s0)
   11b44:	fcf42e23          	sw	a5,-36(s0)
   11b48:	87ba                	mv	a5,a4
   11b4a:	fcf42c23          	sw	a5,-40(s0)
   11b4e:	07700893          	li	a7,119
   11b52:	00000073          	ecall
   11b56:	87aa                	mv	a5,a0
   11b58:	fef42623          	sw	a5,-20(s0)
   11b5c:	fec42783          	lw	a5,-20(s0)
   11b60:	853e                	mv	a0,a5
   11b62:	7422                	ld	s0,40(sp)
   11b64:	6145                	add	sp,sp,48
   11b66:	8082                	ret

0000000000011b68 <_Z22rev_sched_getscheduleri>:
   11b68:	7179                	add	sp,sp,-48
   11b6a:	f422                	sd	s0,40(sp)
   11b6c:	1800                	add	s0,sp,48
   11b6e:	87aa                	mv	a5,a0
   11b70:	fcf42e23          	sw	a5,-36(s0)
   11b74:	07800893          	li	a7,120
   11b78:	00000073          	ecall
   11b7c:	87aa                	mv	a5,a0
   11b7e:	fef42623          	sw	a5,-20(s0)
   11b82:	fec42783          	lw	a5,-20(s0)
   11b86:	853e                	mv	a0,a5
   11b88:	7422                	ld	s0,40(sp)
   11b8a:	6145                	add	sp,sp,48
   11b8c:	8082                	ret

0000000000011b8e <_Z18rev_sched_getparamiP11sched_param>:
   11b8e:	7179                	add	sp,sp,-48
   11b90:	f422                	sd	s0,40(sp)
   11b92:	1800                	add	s0,sp,48
   11b94:	87aa                	mv	a5,a0
   11b96:	fcb43823          	sd	a1,-48(s0)
   11b9a:	fcf42e23          	sw	a5,-36(s0)
   11b9e:	07900893          	li	a7,121
   11ba2:	00000073          	ecall
   11ba6:	87aa                	mv	a5,a0
   11ba8:	fef42623          	sw	a5,-20(s0)
   11bac:	fec42783          	lw	a5,-20(s0)
   11bb0:	853e                	mv	a0,a5
   11bb2:	7422                	ld	s0,40(sp)
   11bb4:	6145                	add	sp,sp,48
   11bb6:	8082                	ret

0000000000011bb8 <_Z21rev_sched_setaffinityijPm>:
   11bb8:	7179                	add	sp,sp,-48
   11bba:	f422                	sd	s0,40(sp)
   11bbc:	1800                	add	s0,sp,48
   11bbe:	87aa                	mv	a5,a0
   11bc0:	872e                	mv	a4,a1
   11bc2:	fcc43823          	sd	a2,-48(s0)
   11bc6:	fcf42e23          	sw	a5,-36(s0)
   11bca:	87ba                	mv	a5,a4
   11bcc:	fcf42c23          	sw	a5,-40(s0)
   11bd0:	07a00893          	li	a7,122
   11bd4:	00000073          	ecall
   11bd8:	87aa                	mv	a5,a0
   11bda:	fef42623          	sw	a5,-20(s0)
   11bde:	fec42783          	lw	a5,-20(s0)
   11be2:	853e                	mv	a0,a5
   11be4:	7422                	ld	s0,40(sp)
   11be6:	6145                	add	sp,sp,48
   11be8:	8082                	ret

0000000000011bea <_Z21rev_sched_getaffinityijPm>:
   11bea:	7179                	add	sp,sp,-48
   11bec:	f422                	sd	s0,40(sp)
   11bee:	1800                	add	s0,sp,48
   11bf0:	87aa                	mv	a5,a0
   11bf2:	872e                	mv	a4,a1
   11bf4:	fcc43823          	sd	a2,-48(s0)
   11bf8:	fcf42e23          	sw	a5,-36(s0)
   11bfc:	87ba                	mv	a5,a4
   11bfe:	fcf42c23          	sw	a5,-40(s0)
   11c02:	07b00893          	li	a7,123
   11c06:	00000073          	ecall
   11c0a:	87aa                	mv	a5,a0
   11c0c:	fef42623          	sw	a5,-20(s0)
   11c10:	fec42783          	lw	a5,-20(s0)
   11c14:	853e                	mv	a0,a5
   11c16:	7422                	ld	s0,40(sp)
   11c18:	6145                	add	sp,sp,48
   11c1a:	8082                	ret

0000000000011c1c <_Z15rev_sched_yieldv>:
   11c1c:	1101                	add	sp,sp,-32
   11c1e:	ec22                	sd	s0,24(sp)
   11c20:	1000                	add	s0,sp,32
   11c22:	07c00893          	li	a7,124
   11c26:	00000073          	ecall
   11c2a:	87aa                	mv	a5,a0
   11c2c:	fef42623          	sw	a5,-20(s0)
   11c30:	fec42783          	lw	a5,-20(s0)
   11c34:	853e                	mv	a0,a5
   11c36:	6462                	ld	s0,24(sp)
   11c38:	6105                	add	sp,sp,32
   11c3a:	8082                	ret

0000000000011c3c <_Z26rev_sched_get_priority_maxi>:
   11c3c:	7179                	add	sp,sp,-48
   11c3e:	f422                	sd	s0,40(sp)
   11c40:	1800                	add	s0,sp,48
   11c42:	87aa                	mv	a5,a0
   11c44:	fcf42e23          	sw	a5,-36(s0)
   11c48:	07d00893          	li	a7,125
   11c4c:	00000073          	ecall
   11c50:	87aa                	mv	a5,a0
   11c52:	fef42623          	sw	a5,-20(s0)
   11c56:	fec42783          	lw	a5,-20(s0)
   11c5a:	853e                	mv	a0,a5
   11c5c:	7422                	ld	s0,40(sp)
   11c5e:	6145                	add	sp,sp,48
   11c60:	8082                	ret

0000000000011c62 <_Z26rev_sched_get_priority_mini>:
   11c62:	7179                	add	sp,sp,-48
   11c64:	f422                	sd	s0,40(sp)
   11c66:	1800                	add	s0,sp,48
   11c68:	87aa                	mv	a5,a0
   11c6a:	fcf42e23          	sw	a5,-36(s0)
   11c6e:	07e00893          	li	a7,126
   11c72:	00000073          	ecall
   11c76:	87aa                	mv	a5,a0
   11c78:	fef42623          	sw	a5,-20(s0)
   11c7c:	fec42783          	lw	a5,-20(s0)
   11c80:	853e                	mv	a0,a5
   11c82:	7422                	ld	s0,40(sp)
   11c84:	6145                	add	sp,sp,48
   11c86:	8082                	ret

0000000000011c88 <_Z25rev_sched_rr_get_intervaliP8timespec>:
   11c88:	7179                	add	sp,sp,-48
   11c8a:	f422                	sd	s0,40(sp)
   11c8c:	1800                	add	s0,sp,48
   11c8e:	87aa                	mv	a5,a0
   11c90:	fcb43823          	sd	a1,-48(s0)
   11c94:	fcf42e23          	sw	a5,-36(s0)
   11c98:	07f00893          	li	a7,127
   11c9c:	00000073          	ecall
   11ca0:	87aa                	mv	a5,a0
   11ca2:	fef42623          	sw	a5,-20(s0)
   11ca6:	fec42783          	lw	a5,-20(s0)
   11caa:	853e                	mv	a0,a5
   11cac:	7422                	ld	s0,40(sp)
   11cae:	6145                	add	sp,sp,48
   11cb0:	8082                	ret

0000000000011cb2 <_Z19rev_restart_syscallv>:
   11cb2:	1101                	add	sp,sp,-32
   11cb4:	ec22                	sd	s0,24(sp)
   11cb6:	1000                	add	s0,sp,32
   11cb8:	08000893          	li	a7,128
   11cbc:	00000073          	ecall
   11cc0:	87aa                	mv	a5,a0
   11cc2:	fef42623          	sw	a5,-20(s0)
   11cc6:	fec42783          	lw	a5,-20(s0)
   11cca:	853e                	mv	a0,a5
   11ccc:	6462                	ld	s0,24(sp)
   11cce:	6105                	add	sp,sp,32
   11cd0:	8082                	ret

0000000000011cd2 <_Z8rev_killii>:
   11cd2:	7179                	add	sp,sp,-48
   11cd4:	f422                	sd	s0,40(sp)
   11cd6:	1800                	add	s0,sp,48
   11cd8:	87aa                	mv	a5,a0
   11cda:	872e                	mv	a4,a1
   11cdc:	fcf42e23          	sw	a5,-36(s0)
   11ce0:	87ba                	mv	a5,a4
   11ce2:	fcf42c23          	sw	a5,-40(s0)
   11ce6:	08100893          	li	a7,129
   11cea:	00000073          	ecall
   11cee:	87aa                	mv	a5,a0
   11cf0:	fef42623          	sw	a5,-20(s0)
   11cf4:	fec42783          	lw	a5,-20(s0)
   11cf8:	853e                	mv	a0,a5
   11cfa:	7422                	ld	s0,40(sp)
   11cfc:	6145                	add	sp,sp,48
   11cfe:	8082                	ret

0000000000011d00 <_Z9rev_tkillii>:
   11d00:	7179                	add	sp,sp,-48
   11d02:	f422                	sd	s0,40(sp)
   11d04:	1800                	add	s0,sp,48
   11d06:	87aa                	mv	a5,a0
   11d08:	872e                	mv	a4,a1
   11d0a:	fcf42e23          	sw	a5,-36(s0)
   11d0e:	87ba                	mv	a5,a4
   11d10:	fcf42c23          	sw	a5,-40(s0)
   11d14:	08200893          	li	a7,130
   11d18:	00000073          	ecall
   11d1c:	87aa                	mv	a5,a0
   11d1e:	fef42623          	sw	a5,-20(s0)
   11d22:	fec42783          	lw	a5,-20(s0)
   11d26:	853e                	mv	a0,a5
   11d28:	7422                	ld	s0,40(sp)
   11d2a:	6145                	add	sp,sp,48
   11d2c:	8082                	ret

0000000000011d2e <_Z10rev_tgkilliii>:
   11d2e:	7179                	add	sp,sp,-48
   11d30:	f422                	sd	s0,40(sp)
   11d32:	1800                	add	s0,sp,48
   11d34:	87aa                	mv	a5,a0
   11d36:	86ae                	mv	a3,a1
   11d38:	8732                	mv	a4,a2
   11d3a:	fcf42e23          	sw	a5,-36(s0)
   11d3e:	87b6                	mv	a5,a3
   11d40:	fcf42c23          	sw	a5,-40(s0)
   11d44:	87ba                	mv	a5,a4
   11d46:	fcf42a23          	sw	a5,-44(s0)
   11d4a:	08300893          	li	a7,131
   11d4e:	00000073          	ecall
   11d52:	87aa                	mv	a5,a0
   11d54:	fef42623          	sw	a5,-20(s0)
   11d58:	fec42783          	lw	a5,-20(s0)
   11d5c:	853e                	mv	a0,a5
   11d5e:	7422                	ld	s0,40(sp)
   11d60:	6145                	add	sp,sp,48
   11d62:	8082                	ret

0000000000011d64 <_Z15rev_sigaltstackPK11sigaltstackPS_>:
   11d64:	7179                	add	sp,sp,-48
   11d66:	f422                	sd	s0,40(sp)
   11d68:	1800                	add	s0,sp,48
   11d6a:	fca43c23          	sd	a0,-40(s0)
   11d6e:	fcb43823          	sd	a1,-48(s0)
   11d72:	08400893          	li	a7,132
   11d76:	00000073          	ecall
   11d7a:	87aa                	mv	a5,a0
   11d7c:	fef42623          	sw	a5,-20(s0)
   11d80:	fec42783          	lw	a5,-20(s0)
   11d84:	853e                	mv	a0,a5
   11d86:	7422                	ld	s0,40(sp)
   11d88:	6145                	add	sp,sp,48
   11d8a:	8082                	ret

0000000000011d8c <_Z17rev_rt_sigsuspendPmm>:
   11d8c:	7179                	add	sp,sp,-48
   11d8e:	f422                	sd	s0,40(sp)
   11d90:	1800                	add	s0,sp,48
   11d92:	fca43c23          	sd	a0,-40(s0)
   11d96:	fcb43823          	sd	a1,-48(s0)
   11d9a:	08500893          	li	a7,133
   11d9e:	00000073          	ecall
   11da2:	87aa                	mv	a5,a0
   11da4:	fef42623          	sw	a5,-20(s0)
   11da8:	fec42783          	lw	a5,-20(s0)
   11dac:	853e                	mv	a0,a5
   11dae:	7422                	ld	s0,40(sp)
   11db0:	6145                	add	sp,sp,48
   11db2:	8082                	ret

0000000000011db4 <_Z16rev_rt_sigactioniPK9sigactionPS_m>:
   11db4:	7139                	add	sp,sp,-64
   11db6:	fc22                	sd	s0,56(sp)
   11db8:	0080                	add	s0,sp,64
   11dba:	87aa                	mv	a5,a0
   11dbc:	fcb43823          	sd	a1,-48(s0)
   11dc0:	fcc43423          	sd	a2,-56(s0)
   11dc4:	fcd43023          	sd	a3,-64(s0)
   11dc8:	fcf42e23          	sw	a5,-36(s0)
   11dcc:	08600893          	li	a7,134
   11dd0:	00000073          	ecall
   11dd4:	87aa                	mv	a5,a0
   11dd6:	fef42623          	sw	a5,-20(s0)
   11dda:	fec42783          	lw	a5,-20(s0)
   11dde:	853e                	mv	a0,a5
   11de0:	7462                	ld	s0,56(sp)
   11de2:	6121                	add	sp,sp,64
   11de4:	8082                	ret

0000000000011de6 <_Z18rev_rt_sigprocmaskiPmS_m>:
   11de6:	7139                	add	sp,sp,-64
   11de8:	fc22                	sd	s0,56(sp)
   11dea:	0080                	add	s0,sp,64
   11dec:	87aa                	mv	a5,a0
   11dee:	fcb43823          	sd	a1,-48(s0)
   11df2:	fcc43423          	sd	a2,-56(s0)
   11df6:	fcd43023          	sd	a3,-64(s0)
   11dfa:	fcf42e23          	sw	a5,-36(s0)
   11dfe:	08700893          	li	a7,135
   11e02:	00000073          	ecall
   11e06:	87aa                	mv	a5,a0
   11e08:	fef42623          	sw	a5,-20(s0)
   11e0c:	fec42783          	lw	a5,-20(s0)
   11e10:	853e                	mv	a0,a5
   11e12:	7462                	ld	s0,56(sp)
   11e14:	6121                	add	sp,sp,64
   11e16:	8082                	ret

0000000000011e18 <_Z17rev_rt_sigpendingPmm>:
   11e18:	7179                	add	sp,sp,-48
   11e1a:	f422                	sd	s0,40(sp)
   11e1c:	1800                	add	s0,sp,48
   11e1e:	fca43c23          	sd	a0,-40(s0)
   11e22:	fcb43823          	sd	a1,-48(s0)
   11e26:	08800893          	li	a7,136
   11e2a:	00000073          	ecall
   11e2e:	87aa                	mv	a5,a0
   11e30:	fef42623          	sw	a5,-20(s0)
   11e34:	fec42783          	lw	a5,-20(s0)
   11e38:	853e                	mv	a0,a5
   11e3a:	7422                	ld	s0,40(sp)
   11e3c:	6145                	add	sp,sp,48
   11e3e:	8082                	ret

0000000000011e40 <_Z26rev_rt_sigtimedwait_time32PKmP9siginfo_tPK14old_timespec32m>:
   11e40:	7139                	add	sp,sp,-64
   11e42:	fc22                	sd	s0,56(sp)
   11e44:	0080                	add	s0,sp,64
   11e46:	fca43c23          	sd	a0,-40(s0)
   11e4a:	fcb43823          	sd	a1,-48(s0)
   11e4e:	fcc43423          	sd	a2,-56(s0)
   11e52:	fcd43023          	sd	a3,-64(s0)
   11e56:	08900893          	li	a7,137
   11e5a:	00000073          	ecall
   11e5e:	87aa                	mv	a5,a0
   11e60:	fef42623          	sw	a5,-20(s0)
   11e64:	fec42783          	lw	a5,-20(s0)
   11e68:	853e                	mv	a0,a5
   11e6a:	7462                	ld	s0,56(sp)
   11e6c:	6121                	add	sp,sp,64
   11e6e:	8082                	ret

0000000000011e70 <_Z19rev_rt_sigqueueinfoiiP9siginfo_t>:
   11e70:	7179                	add	sp,sp,-48
   11e72:	f422                	sd	s0,40(sp)
   11e74:	1800                	add	s0,sp,48
   11e76:	87aa                	mv	a5,a0
   11e78:	872e                	mv	a4,a1
   11e7a:	fcc43823          	sd	a2,-48(s0)
   11e7e:	fcf42e23          	sw	a5,-36(s0)
   11e82:	87ba                	mv	a5,a4
   11e84:	fcf42c23          	sw	a5,-40(s0)
   11e88:	08a00893          	li	a7,138
   11e8c:	00000073          	ecall
   11e90:	87aa                	mv	a5,a0
   11e92:	fef42623          	sw	a5,-20(s0)
   11e96:	fec42783          	lw	a5,-20(s0)
   11e9a:	853e                	mv	a0,a5
   11e9c:	7422                	ld	s0,40(sp)
   11e9e:	6145                	add	sp,sp,48
   11ea0:	8082                	ret

0000000000011ea2 <_Z15rev_setpriorityiii>:
   11ea2:	7179                	add	sp,sp,-48
   11ea4:	f422                	sd	s0,40(sp)
   11ea6:	1800                	add	s0,sp,48
   11ea8:	87aa                	mv	a5,a0
   11eaa:	86ae                	mv	a3,a1
   11eac:	8732                	mv	a4,a2
   11eae:	fcf42e23          	sw	a5,-36(s0)
   11eb2:	87b6                	mv	a5,a3
   11eb4:	fcf42c23          	sw	a5,-40(s0)
   11eb8:	87ba                	mv	a5,a4
   11eba:	fcf42a23          	sw	a5,-44(s0)
   11ebe:	08c00893          	li	a7,140
   11ec2:	00000073          	ecall
   11ec6:	87aa                	mv	a5,a0
   11ec8:	fef42623          	sw	a5,-20(s0)
   11ecc:	fec42783          	lw	a5,-20(s0)
   11ed0:	853e                	mv	a0,a5
   11ed2:	7422                	ld	s0,40(sp)
   11ed4:	6145                	add	sp,sp,48
   11ed6:	8082                	ret

0000000000011ed8 <_Z15rev_getpriorityii>:
   11ed8:	7179                	add	sp,sp,-48
   11eda:	f422                	sd	s0,40(sp)
   11edc:	1800                	add	s0,sp,48
   11ede:	87aa                	mv	a5,a0
   11ee0:	872e                	mv	a4,a1
   11ee2:	fcf42e23          	sw	a5,-36(s0)
   11ee6:	87ba                	mv	a5,a4
   11ee8:	fcf42c23          	sw	a5,-40(s0)
   11eec:	08d00893          	li	a7,141
   11ef0:	00000073          	ecall
   11ef4:	87aa                	mv	a5,a0
   11ef6:	fef42623          	sw	a5,-20(s0)
   11efa:	fec42783          	lw	a5,-20(s0)
   11efe:	853e                	mv	a0,a5
   11f00:	7422                	ld	s0,40(sp)
   11f02:	6145                	add	sp,sp,48
   11f04:	8082                	ret

0000000000011f06 <_Z10rev_rebootiijPv>:
   11f06:	7139                	add	sp,sp,-64
   11f08:	fc22                	sd	s0,56(sp)
   11f0a:	0080                	add	s0,sp,64
   11f0c:	87aa                	mv	a5,a0
   11f0e:	8732                	mv	a4,a2
   11f10:	fcd43423          	sd	a3,-56(s0)
   11f14:	fcf42e23          	sw	a5,-36(s0)
   11f18:	87ae                	mv	a5,a1
   11f1a:	fcf42c23          	sw	a5,-40(s0)
   11f1e:	87ba                	mv	a5,a4
   11f20:	fcf42a23          	sw	a5,-44(s0)
   11f24:	08e00893          	li	a7,142
   11f28:	00000073          	ecall
   11f2c:	87aa                	mv	a5,a0
   11f2e:	fef42623          	sw	a5,-20(s0)
   11f32:	fec42783          	lw	a5,-20(s0)
   11f36:	853e                	mv	a0,a5
   11f38:	7462                	ld	s0,56(sp)
   11f3a:	6121                	add	sp,sp,64
   11f3c:	8082                	ret

0000000000011f3e <_Z12rev_setregidtt>:
   11f3e:	7179                	add	sp,sp,-48
   11f40:	f422                	sd	s0,40(sp)
   11f42:	1800                	add	s0,sp,48
   11f44:	87aa                	mv	a5,a0
   11f46:	872e                	mv	a4,a1
   11f48:	fcf41f23          	sh	a5,-34(s0)
   11f4c:	87ba                	mv	a5,a4
   11f4e:	fcf41e23          	sh	a5,-36(s0)
   11f52:	08f00893          	li	a7,143
   11f56:	00000073          	ecall
   11f5a:	87aa                	mv	a5,a0
   11f5c:	fef42623          	sw	a5,-20(s0)
   11f60:	fec42783          	lw	a5,-20(s0)
   11f64:	853e                	mv	a0,a5
   11f66:	7422                	ld	s0,40(sp)
   11f68:	6145                	add	sp,sp,48
   11f6a:	8082                	ret

0000000000011f6c <_Z10rev_setgidt>:
   11f6c:	7179                	add	sp,sp,-48
   11f6e:	f422                	sd	s0,40(sp)
   11f70:	1800                	add	s0,sp,48
   11f72:	87aa                	mv	a5,a0
   11f74:	fcf41f23          	sh	a5,-34(s0)
   11f78:	09000893          	li	a7,144
   11f7c:	00000073          	ecall
   11f80:	87aa                	mv	a5,a0
   11f82:	fef42623          	sw	a5,-20(s0)
   11f86:	fec42783          	lw	a5,-20(s0)
   11f8a:	853e                	mv	a0,a5
   11f8c:	7422                	ld	s0,40(sp)
   11f8e:	6145                	add	sp,sp,48
   11f90:	8082                	ret

0000000000011f92 <_Z12rev_setreuidtt>:
   11f92:	7179                	add	sp,sp,-48
   11f94:	f422                	sd	s0,40(sp)
   11f96:	1800                	add	s0,sp,48
   11f98:	87aa                	mv	a5,a0
   11f9a:	872e                	mv	a4,a1
   11f9c:	fcf41f23          	sh	a5,-34(s0)
   11fa0:	87ba                	mv	a5,a4
   11fa2:	fcf41e23          	sh	a5,-36(s0)
   11fa6:	09100893          	li	a7,145
   11faa:	00000073          	ecall
   11fae:	87aa                	mv	a5,a0
   11fb0:	fef42623          	sw	a5,-20(s0)
   11fb4:	fec42783          	lw	a5,-20(s0)
   11fb8:	853e                	mv	a0,a5
   11fba:	7422                	ld	s0,40(sp)
   11fbc:	6145                	add	sp,sp,48
   11fbe:	8082                	ret

0000000000011fc0 <_Z10rev_setuidt>:
   11fc0:	7179                	add	sp,sp,-48
   11fc2:	f422                	sd	s0,40(sp)
   11fc4:	1800                	add	s0,sp,48
   11fc6:	87aa                	mv	a5,a0
   11fc8:	fcf41f23          	sh	a5,-34(s0)
   11fcc:	09200893          	li	a7,146
   11fd0:	00000073          	ecall
   11fd4:	87aa                	mv	a5,a0
   11fd6:	fef42623          	sw	a5,-20(s0)
   11fda:	fec42783          	lw	a5,-20(s0)
   11fde:	853e                	mv	a0,a5
   11fe0:	7422                	ld	s0,40(sp)
   11fe2:	6145                	add	sp,sp,48
   11fe4:	8082                	ret

0000000000011fe6 <_Z13rev_setresuidttt>:
   11fe6:	7179                	add	sp,sp,-48
   11fe8:	f422                	sd	s0,40(sp)
   11fea:	1800                	add	s0,sp,48
   11fec:	87aa                	mv	a5,a0
   11fee:	86ae                	mv	a3,a1
   11ff0:	8732                	mv	a4,a2
   11ff2:	fcf41f23          	sh	a5,-34(s0)
   11ff6:	87b6                	mv	a5,a3
   11ff8:	fcf41e23          	sh	a5,-36(s0)
   11ffc:	87ba                	mv	a5,a4
   11ffe:	fcf41d23          	sh	a5,-38(s0)
   12002:	09300893          	li	a7,147
   12006:	00000073          	ecall
   1200a:	87aa                	mv	a5,a0
   1200c:	fef42623          	sw	a5,-20(s0)
   12010:	fec42783          	lw	a5,-20(s0)
   12014:	853e                	mv	a0,a5
   12016:	7422                	ld	s0,40(sp)
   12018:	6145                	add	sp,sp,48
   1201a:	8082                	ret

000000000001201c <_Z13rev_getresuidPtS_S_>:
   1201c:	7139                	add	sp,sp,-64
   1201e:	fc22                	sd	s0,56(sp)
   12020:	0080                	add	s0,sp,64
   12022:	fca43c23          	sd	a0,-40(s0)
   12026:	fcb43823          	sd	a1,-48(s0)
   1202a:	fcc43423          	sd	a2,-56(s0)
   1202e:	09400893          	li	a7,148
   12032:	00000073          	ecall
   12036:	87aa                	mv	a5,a0
   12038:	fef42623          	sw	a5,-20(s0)
   1203c:	fec42783          	lw	a5,-20(s0)
   12040:	853e                	mv	a0,a5
   12042:	7462                	ld	s0,56(sp)
   12044:	6121                	add	sp,sp,64
   12046:	8082                	ret

0000000000012048 <_Z13rev_setresgidttt>:
   12048:	7179                	add	sp,sp,-48
   1204a:	f422                	sd	s0,40(sp)
   1204c:	1800                	add	s0,sp,48
   1204e:	87aa                	mv	a5,a0
   12050:	86ae                	mv	a3,a1
   12052:	8732                	mv	a4,a2
   12054:	fcf41f23          	sh	a5,-34(s0)
   12058:	87b6                	mv	a5,a3
   1205a:	fcf41e23          	sh	a5,-36(s0)
   1205e:	87ba                	mv	a5,a4
   12060:	fcf41d23          	sh	a5,-38(s0)
   12064:	09500893          	li	a7,149
   12068:	00000073          	ecall
   1206c:	87aa                	mv	a5,a0
   1206e:	fef42623          	sw	a5,-20(s0)
   12072:	fec42783          	lw	a5,-20(s0)
   12076:	853e                	mv	a0,a5
   12078:	7422                	ld	s0,40(sp)
   1207a:	6145                	add	sp,sp,48
   1207c:	8082                	ret

000000000001207e <_Z13rev_getresgidPtS_S_>:
   1207e:	7139                	add	sp,sp,-64
   12080:	fc22                	sd	s0,56(sp)
   12082:	0080                	add	s0,sp,64
   12084:	fca43c23          	sd	a0,-40(s0)
   12088:	fcb43823          	sd	a1,-48(s0)
   1208c:	fcc43423          	sd	a2,-56(s0)
   12090:	09600893          	li	a7,150
   12094:	00000073          	ecall
   12098:	87aa                	mv	a5,a0
   1209a:	fef42623          	sw	a5,-20(s0)
   1209e:	fec42783          	lw	a5,-20(s0)
   120a2:	853e                	mv	a0,a5
   120a4:	7462                	ld	s0,56(sp)
   120a6:	6121                	add	sp,sp,64
   120a8:	8082                	ret

00000000000120aa <_Z12rev_setfsuidt>:
   120aa:	7179                	add	sp,sp,-48
   120ac:	f422                	sd	s0,40(sp)
   120ae:	1800                	add	s0,sp,48
   120b0:	87aa                	mv	a5,a0
   120b2:	fcf41f23          	sh	a5,-34(s0)
   120b6:	09700893          	li	a7,151
   120ba:	00000073          	ecall
   120be:	87aa                	mv	a5,a0
   120c0:	fef42623          	sw	a5,-20(s0)
   120c4:	fec42783          	lw	a5,-20(s0)
   120c8:	853e                	mv	a0,a5
   120ca:	7422                	ld	s0,40(sp)
   120cc:	6145                	add	sp,sp,48
   120ce:	8082                	ret

00000000000120d0 <_Z12rev_setfsgidt>:
   120d0:	7179                	add	sp,sp,-48
   120d2:	f422                	sd	s0,40(sp)
   120d4:	1800                	add	s0,sp,48
   120d6:	87aa                	mv	a5,a0
   120d8:	fcf41f23          	sh	a5,-34(s0)
   120dc:	09800893          	li	a7,152
   120e0:	00000073          	ecall
   120e4:	87aa                	mv	a5,a0
   120e6:	fef42623          	sw	a5,-20(s0)
   120ea:	fec42783          	lw	a5,-20(s0)
   120ee:	853e                	mv	a0,a5
   120f0:	7422                	ld	s0,40(sp)
   120f2:	6145                	add	sp,sp,48
   120f4:	8082                	ret

00000000000120f6 <_Z9rev_timesP3tms>:
   120f6:	7179                	add	sp,sp,-48
   120f8:	f422                	sd	s0,40(sp)
   120fa:	1800                	add	s0,sp,48
   120fc:	fca43c23          	sd	a0,-40(s0)
   12100:	09900893          	li	a7,153
   12104:	00000073          	ecall
   12108:	87aa                	mv	a5,a0
   1210a:	fef42623          	sw	a5,-20(s0)
   1210e:	fec42783          	lw	a5,-20(s0)
   12112:	853e                	mv	a0,a5
   12114:	7422                	ld	s0,40(sp)
   12116:	6145                	add	sp,sp,48
   12118:	8082                	ret

000000000001211a <_Z11rev_setpgidii>:
   1211a:	7179                	add	sp,sp,-48
   1211c:	f422                	sd	s0,40(sp)
   1211e:	1800                	add	s0,sp,48
   12120:	87aa                	mv	a5,a0
   12122:	872e                	mv	a4,a1
   12124:	fcf42e23          	sw	a5,-36(s0)
   12128:	87ba                	mv	a5,a4
   1212a:	fcf42c23          	sw	a5,-40(s0)
   1212e:	09a00893          	li	a7,154
   12132:	00000073          	ecall
   12136:	87aa                	mv	a5,a0
   12138:	fef42623          	sw	a5,-20(s0)
   1213c:	fec42783          	lw	a5,-20(s0)
   12140:	853e                	mv	a0,a5
   12142:	7422                	ld	s0,40(sp)
   12144:	6145                	add	sp,sp,48
   12146:	8082                	ret

0000000000012148 <_Z11rev_getpgidi>:
   12148:	7179                	add	sp,sp,-48
   1214a:	f422                	sd	s0,40(sp)
   1214c:	1800                	add	s0,sp,48
   1214e:	87aa                	mv	a5,a0
   12150:	fcf42e23          	sw	a5,-36(s0)
   12154:	09b00893          	li	a7,155
   12158:	00000073          	ecall
   1215c:	87aa                	mv	a5,a0
   1215e:	fef42623          	sw	a5,-20(s0)
   12162:	fec42783          	lw	a5,-20(s0)
   12166:	853e                	mv	a0,a5
   12168:	7422                	ld	s0,40(sp)
   1216a:	6145                	add	sp,sp,48
   1216c:	8082                	ret

000000000001216e <_Z10rev_getsidi>:
   1216e:	7179                	add	sp,sp,-48
   12170:	f422                	sd	s0,40(sp)
   12172:	1800                	add	s0,sp,48
   12174:	87aa                	mv	a5,a0
   12176:	fcf42e23          	sw	a5,-36(s0)
   1217a:	09c00893          	li	a7,156
   1217e:	00000073          	ecall
   12182:	87aa                	mv	a5,a0
   12184:	fef42623          	sw	a5,-20(s0)
   12188:	fec42783          	lw	a5,-20(s0)
   1218c:	853e                	mv	a0,a5
   1218e:	7422                	ld	s0,40(sp)
   12190:	6145                	add	sp,sp,48
   12192:	8082                	ret

0000000000012194 <_Z10rev_setsidv>:
   12194:	1101                	add	sp,sp,-32
   12196:	ec22                	sd	s0,24(sp)
   12198:	1000                	add	s0,sp,32
   1219a:	09d00893          	li	a7,157
   1219e:	00000073          	ecall
   121a2:	87aa                	mv	a5,a0
   121a4:	fef42623          	sw	a5,-20(s0)
   121a8:	fec42783          	lw	a5,-20(s0)
   121ac:	853e                	mv	a0,a5
   121ae:	6462                	ld	s0,24(sp)
   121b0:	6105                	add	sp,sp,32
   121b2:	8082                	ret

00000000000121b4 <_Z13rev_getgroupsiPt>:
   121b4:	7179                	add	sp,sp,-48
   121b6:	f422                	sd	s0,40(sp)
   121b8:	1800                	add	s0,sp,48
   121ba:	87aa                	mv	a5,a0
   121bc:	fcb43823          	sd	a1,-48(s0)
   121c0:	fcf42e23          	sw	a5,-36(s0)
   121c4:	09e00893          	li	a7,158
   121c8:	00000073          	ecall
   121cc:	87aa                	mv	a5,a0
   121ce:	fef42623          	sw	a5,-20(s0)
   121d2:	fec42783          	lw	a5,-20(s0)
   121d6:	853e                	mv	a0,a5
   121d8:	7422                	ld	s0,40(sp)
   121da:	6145                	add	sp,sp,48
   121dc:	8082                	ret

00000000000121de <_Z13rev_setgroupsiPt>:
   121de:	7179                	add	sp,sp,-48
   121e0:	f422                	sd	s0,40(sp)
   121e2:	1800                	add	s0,sp,48
   121e4:	87aa                	mv	a5,a0
   121e6:	fcb43823          	sd	a1,-48(s0)
   121ea:	fcf42e23          	sw	a5,-36(s0)
   121ee:	09f00893          	li	a7,159
   121f2:	00000073          	ecall
   121f6:	87aa                	mv	a5,a0
   121f8:	fef42623          	sw	a5,-20(s0)
   121fc:	fec42783          	lw	a5,-20(s0)
   12200:	853e                	mv	a0,a5
   12202:	7422                	ld	s0,40(sp)
   12204:	6145                	add	sp,sp,48
   12206:	8082                	ret

0000000000012208 <_Z12rev_newunameP11new_utsname>:
   12208:	7179                	add	sp,sp,-48
   1220a:	f422                	sd	s0,40(sp)
   1220c:	1800                	add	s0,sp,48
   1220e:	fca43c23          	sd	a0,-40(s0)
   12212:	0a000893          	li	a7,160
   12216:	00000073          	ecall
   1221a:	87aa                	mv	a5,a0
   1221c:	fef42623          	sw	a5,-20(s0)
   12220:	fec42783          	lw	a5,-20(s0)
   12224:	853e                	mv	a0,a5
   12226:	7422                	ld	s0,40(sp)
   12228:	6145                	add	sp,sp,48
   1222a:	8082                	ret

000000000001222c <_Z15rev_sethostnamePci>:
   1222c:	7179                	add	sp,sp,-48
   1222e:	f422                	sd	s0,40(sp)
   12230:	1800                	add	s0,sp,48
   12232:	fca43c23          	sd	a0,-40(s0)
   12236:	87ae                	mv	a5,a1
   12238:	fcf42a23          	sw	a5,-44(s0)
   1223c:	0a100893          	li	a7,161
   12240:	00000073          	ecall
   12244:	87aa                	mv	a5,a0
   12246:	fef42623          	sw	a5,-20(s0)
   1224a:	fec42783          	lw	a5,-20(s0)
   1224e:	853e                	mv	a0,a5
   12250:	7422                	ld	s0,40(sp)
   12252:	6145                	add	sp,sp,48
   12254:	8082                	ret

0000000000012256 <_Z17rev_setdomainnamePci>:
   12256:	7179                	add	sp,sp,-48
   12258:	f422                	sd	s0,40(sp)
   1225a:	1800                	add	s0,sp,48
   1225c:	fca43c23          	sd	a0,-40(s0)
   12260:	87ae                	mv	a5,a1
   12262:	fcf42a23          	sw	a5,-44(s0)
   12266:	0a200893          	li	a7,162
   1226a:	00000073          	ecall
   1226e:	87aa                	mv	a5,a0
   12270:	fef42623          	sw	a5,-20(s0)
   12274:	fec42783          	lw	a5,-20(s0)
   12278:	853e                	mv	a0,a5
   1227a:	7422                	ld	s0,40(sp)
   1227c:	6145                	add	sp,sp,48
   1227e:	8082                	ret

0000000000012280 <_Z13rev_getrlimitjP6rlimit>:
   12280:	7179                	add	sp,sp,-48
   12282:	f422                	sd	s0,40(sp)
   12284:	1800                	add	s0,sp,48
   12286:	87aa                	mv	a5,a0
   12288:	fcb43823          	sd	a1,-48(s0)
   1228c:	fcf42e23          	sw	a5,-36(s0)
   12290:	0a300893          	li	a7,163
   12294:	00000073          	ecall
   12298:	87aa                	mv	a5,a0
   1229a:	fef42623          	sw	a5,-20(s0)
   1229e:	fec42783          	lw	a5,-20(s0)
   122a2:	853e                	mv	a0,a5
   122a4:	7422                	ld	s0,40(sp)
   122a6:	6145                	add	sp,sp,48
   122a8:	8082                	ret

00000000000122aa <_Z13rev_setrlimitjP6rlimit>:
   122aa:	7179                	add	sp,sp,-48
   122ac:	f422                	sd	s0,40(sp)
   122ae:	1800                	add	s0,sp,48
   122b0:	87aa                	mv	a5,a0
   122b2:	fcb43823          	sd	a1,-48(s0)
   122b6:	fcf42e23          	sw	a5,-36(s0)
   122ba:	0a400893          	li	a7,164
   122be:	00000073          	ecall
   122c2:	87aa                	mv	a5,a0
   122c4:	fef42623          	sw	a5,-20(s0)
   122c8:	fec42783          	lw	a5,-20(s0)
   122cc:	853e                	mv	a0,a5
   122ce:	7422                	ld	s0,40(sp)
   122d0:	6145                	add	sp,sp,48
   122d2:	8082                	ret

00000000000122d4 <_Z13rev_getrusageiP6rusage>:
   122d4:	7179                	add	sp,sp,-48
   122d6:	f422                	sd	s0,40(sp)
   122d8:	1800                	add	s0,sp,48
   122da:	87aa                	mv	a5,a0
   122dc:	fcb43823          	sd	a1,-48(s0)
   122e0:	fcf42e23          	sw	a5,-36(s0)
   122e4:	0a500893          	li	a7,165
   122e8:	00000073          	ecall
   122ec:	87aa                	mv	a5,a0
   122ee:	fef42623          	sw	a5,-20(s0)
   122f2:	fec42783          	lw	a5,-20(s0)
   122f6:	853e                	mv	a0,a5
   122f8:	7422                	ld	s0,40(sp)
   122fa:	6145                	add	sp,sp,48
   122fc:	8082                	ret

00000000000122fe <_Z9rev_umaski>:
   122fe:	7179                	add	sp,sp,-48
   12300:	f422                	sd	s0,40(sp)
   12302:	1800                	add	s0,sp,48
   12304:	87aa                	mv	a5,a0
   12306:	fcf42e23          	sw	a5,-36(s0)
   1230a:	0a600893          	li	a7,166
   1230e:	00000073          	ecall
   12312:	87aa                	mv	a5,a0
   12314:	fef42623          	sw	a5,-20(s0)
   12318:	fec42783          	lw	a5,-20(s0)
   1231c:	853e                	mv	a0,a5
   1231e:	7422                	ld	s0,40(sp)
   12320:	6145                	add	sp,sp,48
   12322:	8082                	ret

0000000000012324 <_Z9rev_prctlimmmm>:
   12324:	715d                	add	sp,sp,-80
   12326:	e4a2                	sd	s0,72(sp)
   12328:	0880                	add	s0,sp,80
   1232a:	87aa                	mv	a5,a0
   1232c:	fcb43823          	sd	a1,-48(s0)
   12330:	fcc43423          	sd	a2,-56(s0)
   12334:	fcd43023          	sd	a3,-64(s0)
   12338:	fae43c23          	sd	a4,-72(s0)
   1233c:	fcf42e23          	sw	a5,-36(s0)
   12340:	0a700893          	li	a7,167
   12344:	00000073          	ecall
   12348:	87aa                	mv	a5,a0
   1234a:	fef42623          	sw	a5,-20(s0)
   1234e:	fec42783          	lw	a5,-20(s0)
   12352:	853e                	mv	a0,a5
   12354:	6426                	ld	s0,72(sp)
   12356:	6161                	add	sp,sp,80
   12358:	8082                	ret

000000000001235a <_Z10rev_getcpuPjS_P12getcpu_cache>:
   1235a:	7139                	add	sp,sp,-64
   1235c:	fc22                	sd	s0,56(sp)
   1235e:	0080                	add	s0,sp,64
   12360:	fca43c23          	sd	a0,-40(s0)
   12364:	fcb43823          	sd	a1,-48(s0)
   12368:	fcc43423          	sd	a2,-56(s0)
   1236c:	0a800893          	li	a7,168
   12370:	00000073          	ecall
   12374:	87aa                	mv	a5,a0
   12376:	fef42623          	sw	a5,-20(s0)
   1237a:	fec42783          	lw	a5,-20(s0)
   1237e:	853e                	mv	a0,a5
   12380:	7462                	ld	s0,56(sp)
   12382:	6121                	add	sp,sp,64
   12384:	8082                	ret

0000000000012386 <_Z16rev_gettimeofdayP20__kernel_old_timevalP8timezone>:
   12386:	7179                	add	sp,sp,-48
   12388:	f422                	sd	s0,40(sp)
   1238a:	1800                	add	s0,sp,48
   1238c:	fca43c23          	sd	a0,-40(s0)
   12390:	fcb43823          	sd	a1,-48(s0)
   12394:	0a900893          	li	a7,169
   12398:	00000073          	ecall
   1239c:	87aa                	mv	a5,a0
   1239e:	fef42623          	sw	a5,-20(s0)
   123a2:	fec42783          	lw	a5,-20(s0)
   123a6:	853e                	mv	a0,a5
   123a8:	7422                	ld	s0,40(sp)
   123aa:	6145                	add	sp,sp,48
   123ac:	8082                	ret

00000000000123ae <_Z16rev_settimeofdayP20__kernel_old_timevalP8timezone>:
   123ae:	7179                	add	sp,sp,-48
   123b0:	f422                	sd	s0,40(sp)
   123b2:	1800                	add	s0,sp,48
   123b4:	fca43c23          	sd	a0,-40(s0)
   123b8:	fcb43823          	sd	a1,-48(s0)
   123bc:	0aa00893          	li	a7,170
   123c0:	00000073          	ecall
   123c4:	87aa                	mv	a5,a0
   123c6:	fef42623          	sw	a5,-20(s0)
   123ca:	fec42783          	lw	a5,-20(s0)
   123ce:	853e                	mv	a0,a5
   123d0:	7422                	ld	s0,40(sp)
   123d2:	6145                	add	sp,sp,48
   123d4:	8082                	ret

00000000000123d6 <_Z12rev_adjtimexP14__kernel_timex>:
   123d6:	7179                	add	sp,sp,-48
   123d8:	f422                	sd	s0,40(sp)
   123da:	1800                	add	s0,sp,48
   123dc:	fca43c23          	sd	a0,-40(s0)
   123e0:	0ab00893          	li	a7,171
   123e4:	00000073          	ecall
   123e8:	87aa                	mv	a5,a0
   123ea:	fef42623          	sw	a5,-20(s0)
   123ee:	fec42783          	lw	a5,-20(s0)
   123f2:	853e                	mv	a0,a5
   123f4:	7422                	ld	s0,40(sp)
   123f6:	6145                	add	sp,sp,48
   123f8:	8082                	ret

00000000000123fa <_Z10rev_getpidv>:
   123fa:	1101                	add	sp,sp,-32
   123fc:	ec22                	sd	s0,24(sp)
   123fe:	1000                	add	s0,sp,32
   12400:	0ac00893          	li	a7,172
   12404:	00000073          	ecall
   12408:	87aa                	mv	a5,a0
   1240a:	fef42623          	sw	a5,-20(s0)
   1240e:	fec42783          	lw	a5,-20(s0)
   12412:	853e                	mv	a0,a5
   12414:	6462                	ld	s0,24(sp)
   12416:	6105                	add	sp,sp,32
   12418:	8082                	ret

000000000001241a <_Z11rev_getppidv>:
   1241a:	1101                	add	sp,sp,-32
   1241c:	ec22                	sd	s0,24(sp)
   1241e:	1000                	add	s0,sp,32
   12420:	0ad00893          	li	a7,173
   12424:	00000073          	ecall
   12428:	87aa                	mv	a5,a0
   1242a:	fef42623          	sw	a5,-20(s0)
   1242e:	fec42783          	lw	a5,-20(s0)
   12432:	853e                	mv	a0,a5
   12434:	6462                	ld	s0,24(sp)
   12436:	6105                	add	sp,sp,32
   12438:	8082                	ret

000000000001243a <_Z10rev_getuidv>:
   1243a:	1101                	add	sp,sp,-32
   1243c:	ec22                	sd	s0,24(sp)
   1243e:	1000                	add	s0,sp,32
   12440:	0ae00893          	li	a7,174
   12444:	00000073          	ecall
   12448:	87aa                	mv	a5,a0
   1244a:	fef42623          	sw	a5,-20(s0)
   1244e:	fec42783          	lw	a5,-20(s0)
   12452:	853e                	mv	a0,a5
   12454:	6462                	ld	s0,24(sp)
   12456:	6105                	add	sp,sp,32
   12458:	8082                	ret

000000000001245a <_Z11rev_geteuidv>:
   1245a:	1101                	add	sp,sp,-32
   1245c:	ec22                	sd	s0,24(sp)
   1245e:	1000                	add	s0,sp,32
   12460:	0af00893          	li	a7,175
   12464:	00000073          	ecall
   12468:	87aa                	mv	a5,a0
   1246a:	fef42623          	sw	a5,-20(s0)
   1246e:	fec42783          	lw	a5,-20(s0)
   12472:	853e                	mv	a0,a5
   12474:	6462                	ld	s0,24(sp)
   12476:	6105                	add	sp,sp,32
   12478:	8082                	ret

000000000001247a <_Z10rev_getgidv>:
   1247a:	1101                	add	sp,sp,-32
   1247c:	ec22                	sd	s0,24(sp)
   1247e:	1000                	add	s0,sp,32
   12480:	0b000893          	li	a7,176
   12484:	00000073          	ecall
   12488:	87aa                	mv	a5,a0
   1248a:	fef42623          	sw	a5,-20(s0)
   1248e:	fec42783          	lw	a5,-20(s0)
   12492:	853e                	mv	a0,a5
   12494:	6462                	ld	s0,24(sp)
   12496:	6105                	add	sp,sp,32
   12498:	8082                	ret

000000000001249a <_Z11rev_getegidv>:
   1249a:	1101                	add	sp,sp,-32
   1249c:	ec22                	sd	s0,24(sp)
   1249e:	1000                	add	s0,sp,32
   124a0:	0b100893          	li	a7,177
   124a4:	00000073          	ecall
   124a8:	87aa                	mv	a5,a0
   124aa:	fef42623          	sw	a5,-20(s0)
   124ae:	fec42783          	lw	a5,-20(s0)
   124b2:	853e                	mv	a0,a5
   124b4:	6462                	ld	s0,24(sp)
   124b6:	6105                	add	sp,sp,32
   124b8:	8082                	ret

00000000000124ba <_Z10rev_gettidv>:
   124ba:	1101                	add	sp,sp,-32
   124bc:	ec22                	sd	s0,24(sp)
   124be:	1000                	add	s0,sp,32
   124c0:	0b200893          	li	a7,178
   124c4:	00000073          	ecall
   124c8:	87aa                	mv	a5,a0
   124ca:	fef42623          	sw	a5,-20(s0)
   124ce:	fec42783          	lw	a5,-20(s0)
   124d2:	853e                	mv	a0,a5
   124d4:	6462                	ld	s0,24(sp)
   124d6:	6105                	add	sp,sp,32
   124d8:	8082                	ret

00000000000124da <_Z11rev_sysinfoP7sysinfo>:
   124da:	7179                	add	sp,sp,-48
   124dc:	f422                	sd	s0,40(sp)
   124de:	1800                	add	s0,sp,48
   124e0:	fca43c23          	sd	a0,-40(s0)
   124e4:	0b300893          	li	a7,179
   124e8:	00000073          	ecall
   124ec:	87aa                	mv	a5,a0
   124ee:	fef42623          	sw	a5,-20(s0)
   124f2:	fec42783          	lw	a5,-20(s0)
   124f6:	853e                	mv	a0,a5
   124f8:	7422                	ld	s0,40(sp)
   124fa:	6145                	add	sp,sp,48
   124fc:	8082                	ret

00000000000124fe <_Z11rev_mq_openPKcitP7mq_attr>:
   124fe:	7139                	add	sp,sp,-64
   12500:	fc22                	sd	s0,56(sp)
   12502:	0080                	add	s0,sp,64
   12504:	fca43c23          	sd	a0,-40(s0)
   12508:	87ae                	mv	a5,a1
   1250a:	8732                	mv	a4,a2
   1250c:	fcd43423          	sd	a3,-56(s0)
   12510:	fcf42a23          	sw	a5,-44(s0)
   12514:	87ba                	mv	a5,a4
   12516:	fcf41923          	sh	a5,-46(s0)
   1251a:	0b400893          	li	a7,180
   1251e:	00000073          	ecall
   12522:	87aa                	mv	a5,a0
   12524:	fef42623          	sw	a5,-20(s0)
   12528:	fec42783          	lw	a5,-20(s0)
   1252c:	853e                	mv	a0,a5
   1252e:	7462                	ld	s0,56(sp)
   12530:	6121                	add	sp,sp,64
   12532:	8082                	ret

0000000000012534 <_Z13rev_mq_unlinkPKc>:
   12534:	7179                	add	sp,sp,-48
   12536:	f422                	sd	s0,40(sp)
   12538:	1800                	add	s0,sp,48
   1253a:	fca43c23          	sd	a0,-40(s0)
   1253e:	0b500893          	li	a7,181
   12542:	00000073          	ecall
   12546:	87aa                	mv	a5,a0
   12548:	fef42623          	sw	a5,-20(s0)
   1254c:	fec42783          	lw	a5,-20(s0)
   12550:	853e                	mv	a0,a5
   12552:	7422                	ld	s0,40(sp)
   12554:	6145                	add	sp,sp,48
   12556:	8082                	ret

0000000000012558 <_Z10rev_msggetli>:
   12558:	7179                	add	sp,sp,-48
   1255a:	f422                	sd	s0,40(sp)
   1255c:	1800                	add	s0,sp,48
   1255e:	fca43c23          	sd	a0,-40(s0)
   12562:	87ae                	mv	a5,a1
   12564:	fcf42a23          	sw	a5,-44(s0)
   12568:	0ba00893          	li	a7,186
   1256c:	00000073          	ecall
   12570:	87aa                	mv	a5,a0
   12572:	fef42623          	sw	a5,-20(s0)
   12576:	fec42783          	lw	a5,-20(s0)
   1257a:	853e                	mv	a0,a5
   1257c:	7422                	ld	s0,40(sp)
   1257e:	6145                	add	sp,sp,48
   12580:	8082                	ret

0000000000012582 <_Z14rev_old_msgctliiP8msqid_ds>:
   12582:	7179                	add	sp,sp,-48
   12584:	f422                	sd	s0,40(sp)
   12586:	1800                	add	s0,sp,48
   12588:	87aa                	mv	a5,a0
   1258a:	872e                	mv	a4,a1
   1258c:	fcc43823          	sd	a2,-48(s0)
   12590:	fcf42e23          	sw	a5,-36(s0)
   12594:	87ba                	mv	a5,a4
   12596:	fcf42c23          	sw	a5,-40(s0)
   1259a:	0bb00893          	li	a7,187
   1259e:	00000073          	ecall
   125a2:	87aa                	mv	a5,a0
   125a4:	fef42623          	sw	a5,-20(s0)
   125a8:	fec42783          	lw	a5,-20(s0)
   125ac:	853e                	mv	a0,a5
   125ae:	7422                	ld	s0,40(sp)
   125b0:	6145                	add	sp,sp,48
   125b2:	8082                	ret

00000000000125b4 <_Z10rev_msgrcviP6msgbufmli>:
   125b4:	7139                	add	sp,sp,-64
   125b6:	fc22                	sd	s0,56(sp)
   125b8:	0080                	add	s0,sp,64
   125ba:	87aa                	mv	a5,a0
   125bc:	fcb43823          	sd	a1,-48(s0)
   125c0:	fcc43423          	sd	a2,-56(s0)
   125c4:	fcd43023          	sd	a3,-64(s0)
   125c8:	fcf42e23          	sw	a5,-36(s0)
   125cc:	87ba                	mv	a5,a4
   125ce:	fcf42c23          	sw	a5,-40(s0)
   125d2:	0bc00893          	li	a7,188
   125d6:	00000073          	ecall
   125da:	87aa                	mv	a5,a0
   125dc:	fef42623          	sw	a5,-20(s0)
   125e0:	fec42783          	lw	a5,-20(s0)
   125e4:	853e                	mv	a0,a5
   125e6:	7462                	ld	s0,56(sp)
   125e8:	6121                	add	sp,sp,64
   125ea:	8082                	ret

00000000000125ec <_Z10rev_msgsndiP6msgbufmi>:
   125ec:	7139                	add	sp,sp,-64
   125ee:	fc22                	sd	s0,56(sp)
   125f0:	0080                	add	s0,sp,64
   125f2:	87aa                	mv	a5,a0
   125f4:	fcb43823          	sd	a1,-48(s0)
   125f8:	fcc43423          	sd	a2,-56(s0)
   125fc:	8736                	mv	a4,a3
   125fe:	fcf42e23          	sw	a5,-36(s0)
   12602:	87ba                	mv	a5,a4
   12604:	fcf42c23          	sw	a5,-40(s0)
   12608:	0bd00893          	li	a7,189
   1260c:	00000073          	ecall
   12610:	87aa                	mv	a5,a0
   12612:	fef42623          	sw	a5,-20(s0)
   12616:	fec42783          	lw	a5,-20(s0)
   1261a:	853e                	mv	a0,a5
   1261c:	7462                	ld	s0,56(sp)
   1261e:	6121                	add	sp,sp,64
   12620:	8082                	ret

0000000000012622 <_Z10rev_semgetlii>:
   12622:	7179                	add	sp,sp,-48
   12624:	f422                	sd	s0,40(sp)
   12626:	1800                	add	s0,sp,48
   12628:	fca43c23          	sd	a0,-40(s0)
   1262c:	87ae                	mv	a5,a1
   1262e:	8732                	mv	a4,a2
   12630:	fcf42a23          	sw	a5,-44(s0)
   12634:	87ba                	mv	a5,a4
   12636:	fcf42823          	sw	a5,-48(s0)
   1263a:	0be00893          	li	a7,190
   1263e:	00000073          	ecall
   12642:	87aa                	mv	a5,a0
   12644:	fef42623          	sw	a5,-20(s0)
   12648:	fec42783          	lw	a5,-20(s0)
   1264c:	853e                	mv	a0,a5
   1264e:	7422                	ld	s0,40(sp)
   12650:	6145                	add	sp,sp,48
   12652:	8082                	ret

0000000000012654 <_Z10rev_semctliiim>:
   12654:	7139                	add	sp,sp,-64
   12656:	fc22                	sd	s0,56(sp)
   12658:	0080                	add	s0,sp,64
   1265a:	87aa                	mv	a5,a0
   1265c:	8732                	mv	a4,a2
   1265e:	fcd43423          	sd	a3,-56(s0)
   12662:	fcf42e23          	sw	a5,-36(s0)
   12666:	87ae                	mv	a5,a1
   12668:	fcf42c23          	sw	a5,-40(s0)
   1266c:	87ba                	mv	a5,a4
   1266e:	fcf42a23          	sw	a5,-44(s0)
   12672:	0bf00893          	li	a7,191
   12676:	00000073          	ecall
   1267a:	87aa                	mv	a5,a0
   1267c:	fef42623          	sw	a5,-20(s0)
   12680:	fec42783          	lw	a5,-20(s0)
   12684:	853e                	mv	a0,a5
   12686:	7462                	ld	s0,56(sp)
   12688:	6121                	add	sp,sp,64
   1268a:	8082                	ret

000000000001268c <_Z14rev_semtimedopiP6sembufjPK8timespec>:
   1268c:	7139                	add	sp,sp,-64
   1268e:	fc22                	sd	s0,56(sp)
   12690:	0080                	add	s0,sp,64
   12692:	87aa                	mv	a5,a0
   12694:	fcb43823          	sd	a1,-48(s0)
   12698:	8732                	mv	a4,a2
   1269a:	fcd43423          	sd	a3,-56(s0)
   1269e:	fcf42e23          	sw	a5,-36(s0)
   126a2:	87ba                	mv	a5,a4
   126a4:	fcf42c23          	sw	a5,-40(s0)
   126a8:	0c000893          	li	a7,192
   126ac:	00000073          	ecall
   126b0:	87aa                	mv	a5,a0
   126b2:	fef42623          	sw	a5,-20(s0)
   126b6:	fec42783          	lw	a5,-20(s0)
   126ba:	853e                	mv	a0,a5
   126bc:	7462                	ld	s0,56(sp)
   126be:	6121                	add	sp,sp,64
   126c0:	8082                	ret

00000000000126c2 <_Z9rev_semopiP6sembufj>:
   126c2:	7179                	add	sp,sp,-48
   126c4:	f422                	sd	s0,40(sp)
   126c6:	1800                	add	s0,sp,48
   126c8:	87aa                	mv	a5,a0
   126ca:	fcb43823          	sd	a1,-48(s0)
   126ce:	8732                	mv	a4,a2
   126d0:	fcf42e23          	sw	a5,-36(s0)
   126d4:	87ba                	mv	a5,a4
   126d6:	fcf42c23          	sw	a5,-40(s0)
   126da:	0c100893          	li	a7,193
   126de:	00000073          	ecall
   126e2:	87aa                	mv	a5,a0
   126e4:	fef42623          	sw	a5,-20(s0)
   126e8:	fec42783          	lw	a5,-20(s0)
   126ec:	853e                	mv	a0,a5
   126ee:	7422                	ld	s0,40(sp)
   126f0:	6145                	add	sp,sp,48
   126f2:	8082                	ret

00000000000126f4 <_Z10rev_shmgetlmi>:
   126f4:	7139                	add	sp,sp,-64
   126f6:	fc22                	sd	s0,56(sp)
   126f8:	0080                	add	s0,sp,64
   126fa:	fca43c23          	sd	a0,-40(s0)
   126fe:	fcb43823          	sd	a1,-48(s0)
   12702:	87b2                	mv	a5,a2
   12704:	fcf42623          	sw	a5,-52(s0)
   12708:	0c200893          	li	a7,194
   1270c:	00000073          	ecall
   12710:	87aa                	mv	a5,a0
   12712:	fef42623          	sw	a5,-20(s0)
   12716:	fec42783          	lw	a5,-20(s0)
   1271a:	853e                	mv	a0,a5
   1271c:	7462                	ld	s0,56(sp)
   1271e:	6121                	add	sp,sp,64
   12720:	8082                	ret

0000000000012722 <_Z14rev_old_shmctliiP8shmid_ds>:
   12722:	7179                	add	sp,sp,-48
   12724:	f422                	sd	s0,40(sp)
   12726:	1800                	add	s0,sp,48
   12728:	87aa                	mv	a5,a0
   1272a:	872e                	mv	a4,a1
   1272c:	fcc43823          	sd	a2,-48(s0)
   12730:	fcf42e23          	sw	a5,-36(s0)
   12734:	87ba                	mv	a5,a4
   12736:	fcf42c23          	sw	a5,-40(s0)
   1273a:	0c300893          	li	a7,195
   1273e:	00000073          	ecall
   12742:	87aa                	mv	a5,a0
   12744:	fef42623          	sw	a5,-20(s0)
   12748:	fec42783          	lw	a5,-20(s0)
   1274c:	853e                	mv	a0,a5
   1274e:	7422                	ld	s0,40(sp)
   12750:	6145                	add	sp,sp,48
   12752:	8082                	ret

0000000000012754 <_Z9rev_shmatiPci>:
   12754:	7179                	add	sp,sp,-48
   12756:	f422                	sd	s0,40(sp)
   12758:	1800                	add	s0,sp,48
   1275a:	87aa                	mv	a5,a0
   1275c:	fcb43823          	sd	a1,-48(s0)
   12760:	8732                	mv	a4,a2
   12762:	fcf42e23          	sw	a5,-36(s0)
   12766:	87ba                	mv	a5,a4
   12768:	fcf42c23          	sw	a5,-40(s0)
   1276c:	0c400893          	li	a7,196
   12770:	00000073          	ecall
   12774:	87aa                	mv	a5,a0
   12776:	fef42623          	sw	a5,-20(s0)
   1277a:	fec42783          	lw	a5,-20(s0)
   1277e:	853e                	mv	a0,a5
   12780:	7422                	ld	s0,40(sp)
   12782:	6145                	add	sp,sp,48
   12784:	8082                	ret

0000000000012786 <_Z9rev_shmdtPc>:
   12786:	7179                	add	sp,sp,-48
   12788:	f422                	sd	s0,40(sp)
   1278a:	1800                	add	s0,sp,48
   1278c:	fca43c23          	sd	a0,-40(s0)
   12790:	0c500893          	li	a7,197
   12794:	00000073          	ecall
   12798:	87aa                	mv	a5,a0
   1279a:	fef42623          	sw	a5,-20(s0)
   1279e:	fec42783          	lw	a5,-20(s0)
   127a2:	853e                	mv	a0,a5
   127a4:	7422                	ld	s0,40(sp)
   127a6:	6145                	add	sp,sp,48
   127a8:	8082                	ret

00000000000127aa <_Z10rev_socketiii>:
   127aa:	7179                	add	sp,sp,-48
   127ac:	f422                	sd	s0,40(sp)
   127ae:	1800                	add	s0,sp,48
   127b0:	87aa                	mv	a5,a0
   127b2:	86ae                	mv	a3,a1
   127b4:	8732                	mv	a4,a2
   127b6:	fcf42e23          	sw	a5,-36(s0)
   127ba:	87b6                	mv	a5,a3
   127bc:	fcf42c23          	sw	a5,-40(s0)
   127c0:	87ba                	mv	a5,a4
   127c2:	fcf42a23          	sw	a5,-44(s0)
   127c6:	0c600893          	li	a7,198
   127ca:	00000073          	ecall
   127ce:	87aa                	mv	a5,a0
   127d0:	fef42623          	sw	a5,-20(s0)
   127d4:	fec42783          	lw	a5,-20(s0)
   127d8:	853e                	mv	a0,a5
   127da:	7422                	ld	s0,40(sp)
   127dc:	6145                	add	sp,sp,48
   127de:	8082                	ret

00000000000127e0 <_Z14rev_socketpairiiiPi>:
   127e0:	7139                	add	sp,sp,-64
   127e2:	fc22                	sd	s0,56(sp)
   127e4:	0080                	add	s0,sp,64
   127e6:	87aa                	mv	a5,a0
   127e8:	8732                	mv	a4,a2
   127ea:	fcd43423          	sd	a3,-56(s0)
   127ee:	fcf42e23          	sw	a5,-36(s0)
   127f2:	87ae                	mv	a5,a1
   127f4:	fcf42c23          	sw	a5,-40(s0)
   127f8:	87ba                	mv	a5,a4
   127fa:	fcf42a23          	sw	a5,-44(s0)
   127fe:	0c700893          	li	a7,199
   12802:	00000073          	ecall
   12806:	87aa                	mv	a5,a0
   12808:	fef42623          	sw	a5,-20(s0)
   1280c:	fec42783          	lw	a5,-20(s0)
   12810:	853e                	mv	a0,a5
   12812:	7462                	ld	s0,56(sp)
   12814:	6121                	add	sp,sp,64
   12816:	8082                	ret

0000000000012818 <_Z8rev_bindiP8sockaddri>:
   12818:	7179                	add	sp,sp,-48
   1281a:	f422                	sd	s0,40(sp)
   1281c:	1800                	add	s0,sp,48
   1281e:	87aa                	mv	a5,a0
   12820:	fcb43823          	sd	a1,-48(s0)
   12824:	8732                	mv	a4,a2
   12826:	fcf42e23          	sw	a5,-36(s0)
   1282a:	87ba                	mv	a5,a4
   1282c:	fcf42c23          	sw	a5,-40(s0)
   12830:	0c800893          	li	a7,200
   12834:	00000073          	ecall
   12838:	87aa                	mv	a5,a0
   1283a:	fef42623          	sw	a5,-20(s0)
   1283e:	fec42783          	lw	a5,-20(s0)
   12842:	853e                	mv	a0,a5
   12844:	7422                	ld	s0,40(sp)
   12846:	6145                	add	sp,sp,48
   12848:	8082                	ret

000000000001284a <_Z10rev_listenii>:
   1284a:	7179                	add	sp,sp,-48
   1284c:	f422                	sd	s0,40(sp)
   1284e:	1800                	add	s0,sp,48
   12850:	87aa                	mv	a5,a0
   12852:	872e                	mv	a4,a1
   12854:	fcf42e23          	sw	a5,-36(s0)
   12858:	87ba                	mv	a5,a4
   1285a:	fcf42c23          	sw	a5,-40(s0)
   1285e:	0c900893          	li	a7,201
   12862:	00000073          	ecall
   12866:	87aa                	mv	a5,a0
   12868:	fef42623          	sw	a5,-20(s0)
   1286c:	fec42783          	lw	a5,-20(s0)
   12870:	853e                	mv	a0,a5
   12872:	7422                	ld	s0,40(sp)
   12874:	6145                	add	sp,sp,48
   12876:	8082                	ret

0000000000012878 <_Z10rev_acceptiP8sockaddrPi>:
   12878:	7139                	add	sp,sp,-64
   1287a:	fc22                	sd	s0,56(sp)
   1287c:	0080                	add	s0,sp,64
   1287e:	87aa                	mv	a5,a0
   12880:	fcb43823          	sd	a1,-48(s0)
   12884:	fcc43423          	sd	a2,-56(s0)
   12888:	fcf42e23          	sw	a5,-36(s0)
   1288c:	0ca00893          	li	a7,202
   12890:	00000073          	ecall
   12894:	87aa                	mv	a5,a0
   12896:	fef42623          	sw	a5,-20(s0)
   1289a:	fec42783          	lw	a5,-20(s0)
   1289e:	853e                	mv	a0,a5
   128a0:	7462                	ld	s0,56(sp)
   128a2:	6121                	add	sp,sp,64
   128a4:	8082                	ret

00000000000128a6 <_Z11rev_connectiP8sockaddri>:
   128a6:	7179                	add	sp,sp,-48
   128a8:	f422                	sd	s0,40(sp)
   128aa:	1800                	add	s0,sp,48
   128ac:	87aa                	mv	a5,a0
   128ae:	fcb43823          	sd	a1,-48(s0)
   128b2:	8732                	mv	a4,a2
   128b4:	fcf42e23          	sw	a5,-36(s0)
   128b8:	87ba                	mv	a5,a4
   128ba:	fcf42c23          	sw	a5,-40(s0)
   128be:	0cb00893          	li	a7,203
   128c2:	00000073          	ecall
   128c6:	87aa                	mv	a5,a0
   128c8:	fef42623          	sw	a5,-20(s0)
   128cc:	fec42783          	lw	a5,-20(s0)
   128d0:	853e                	mv	a0,a5
   128d2:	7422                	ld	s0,40(sp)
   128d4:	6145                	add	sp,sp,48
   128d6:	8082                	ret

00000000000128d8 <_Z15rev_getsocknameiP8sockaddrPi>:
   128d8:	7139                	add	sp,sp,-64
   128da:	fc22                	sd	s0,56(sp)
   128dc:	0080                	add	s0,sp,64
   128de:	87aa                	mv	a5,a0
   128e0:	fcb43823          	sd	a1,-48(s0)
   128e4:	fcc43423          	sd	a2,-56(s0)
   128e8:	fcf42e23          	sw	a5,-36(s0)
   128ec:	0cc00893          	li	a7,204
   128f0:	00000073          	ecall
   128f4:	87aa                	mv	a5,a0
   128f6:	fef42623          	sw	a5,-20(s0)
   128fa:	fec42783          	lw	a5,-20(s0)
   128fe:	853e                	mv	a0,a5
   12900:	7462                	ld	s0,56(sp)
   12902:	6121                	add	sp,sp,64
   12904:	8082                	ret

0000000000012906 <_Z15rev_getpeernameiP8sockaddrPi>:
   12906:	7139                	add	sp,sp,-64
   12908:	fc22                	sd	s0,56(sp)
   1290a:	0080                	add	s0,sp,64
   1290c:	87aa                	mv	a5,a0
   1290e:	fcb43823          	sd	a1,-48(s0)
   12912:	fcc43423          	sd	a2,-56(s0)
   12916:	fcf42e23          	sw	a5,-36(s0)
   1291a:	0cd00893          	li	a7,205
   1291e:	00000073          	ecall
   12922:	87aa                	mv	a5,a0
   12924:	fef42623          	sw	a5,-20(s0)
   12928:	fec42783          	lw	a5,-20(s0)
   1292c:	853e                	mv	a0,a5
   1292e:	7462                	ld	s0,56(sp)
   12930:	6121                	add	sp,sp,64
   12932:	8082                	ret

0000000000012934 <_Z10rev_sendtoiPvmjP8sockaddri>:
   12934:	715d                	add	sp,sp,-80
   12936:	e4a2                	sd	s0,72(sp)
   12938:	0880                	add	s0,sp,80
   1293a:	fcb43823          	sd	a1,-48(s0)
   1293e:	fcc43423          	sd	a2,-56(s0)
   12942:	fce43023          	sd	a4,-64(s0)
   12946:	873e                	mv	a4,a5
   12948:	87aa                	mv	a5,a0
   1294a:	fcf42e23          	sw	a5,-36(s0)
   1294e:	87b6                	mv	a5,a3
   12950:	fcf42c23          	sw	a5,-40(s0)
   12954:	87ba                	mv	a5,a4
   12956:	faf42e23          	sw	a5,-68(s0)
   1295a:	0ce00893          	li	a7,206
   1295e:	00000073          	ecall
   12962:	87aa                	mv	a5,a0
   12964:	fef42623          	sw	a5,-20(s0)
   12968:	fec42783          	lw	a5,-20(s0)
   1296c:	853e                	mv	a0,a5
   1296e:	6426                	ld	s0,72(sp)
   12970:	6161                	add	sp,sp,80
   12972:	8082                	ret

0000000000012974 <_Z12rev_recvfromiPvmjP8sockaddrPi>:
   12974:	715d                	add	sp,sp,-80
   12976:	e4a2                	sd	s0,72(sp)
   12978:	0880                	add	s0,sp,80
   1297a:	fcb43823          	sd	a1,-48(s0)
   1297e:	fcc43423          	sd	a2,-56(s0)
   12982:	fce43023          	sd	a4,-64(s0)
   12986:	faf43c23          	sd	a5,-72(s0)
   1298a:	87aa                	mv	a5,a0
   1298c:	fcf42e23          	sw	a5,-36(s0)
   12990:	87b6                	mv	a5,a3
   12992:	fcf42c23          	sw	a5,-40(s0)
   12996:	0cf00893          	li	a7,207
   1299a:	00000073          	ecall
   1299e:	87aa                	mv	a5,a0
   129a0:	fef42623          	sw	a5,-20(s0)
   129a4:	fec42783          	lw	a5,-20(s0)
   129a8:	853e                	mv	a0,a5
   129aa:	6426                	ld	s0,72(sp)
   129ac:	6161                	add	sp,sp,80
   129ae:	8082                	ret

00000000000129b0 <_Z14rev_setsockoptiiiPci>:
   129b0:	7139                	add	sp,sp,-64
   129b2:	fc22                	sd	s0,56(sp)
   129b4:	0080                	add	s0,sp,64
   129b6:	87aa                	mv	a5,a0
   129b8:	fcd43423          	sd	a3,-56(s0)
   129bc:	fcf42e23          	sw	a5,-36(s0)
   129c0:	87ae                	mv	a5,a1
   129c2:	fcf42c23          	sw	a5,-40(s0)
   129c6:	87b2                	mv	a5,a2
   129c8:	fcf42a23          	sw	a5,-44(s0)
   129cc:	87ba                	mv	a5,a4
   129ce:	fcf42823          	sw	a5,-48(s0)
   129d2:	0d000893          	li	a7,208
   129d6:	00000073          	ecall
   129da:	87aa                	mv	a5,a0
   129dc:	fef42623          	sw	a5,-20(s0)
   129e0:	fec42783          	lw	a5,-20(s0)
   129e4:	853e                	mv	a0,a5
   129e6:	7462                	ld	s0,56(sp)
   129e8:	6121                	add	sp,sp,64
   129ea:	8082                	ret

00000000000129ec <_Z14rev_getsockoptiiiPcPi>:
   129ec:	7139                	add	sp,sp,-64
   129ee:	fc22                	sd	s0,56(sp)
   129f0:	0080                	add	s0,sp,64
   129f2:	87aa                	mv	a5,a0
   129f4:	fcd43423          	sd	a3,-56(s0)
   129f8:	fce43023          	sd	a4,-64(s0)
   129fc:	fcf42e23          	sw	a5,-36(s0)
   12a00:	87ae                	mv	a5,a1
   12a02:	fcf42c23          	sw	a5,-40(s0)
   12a06:	87b2                	mv	a5,a2
   12a08:	fcf42a23          	sw	a5,-44(s0)
   12a0c:	0d100893          	li	a7,209
   12a10:	00000073          	ecall
   12a14:	87aa                	mv	a5,a0
   12a16:	fef42623          	sw	a5,-20(s0)
   12a1a:	fec42783          	lw	a5,-20(s0)
   12a1e:	853e                	mv	a0,a5
   12a20:	7462                	ld	s0,56(sp)
   12a22:	6121                	add	sp,sp,64
   12a24:	8082                	ret

0000000000012a26 <_Z12rev_shutdownii>:
   12a26:	7179                	add	sp,sp,-48
   12a28:	f422                	sd	s0,40(sp)
   12a2a:	1800                	add	s0,sp,48
   12a2c:	87aa                	mv	a5,a0
   12a2e:	872e                	mv	a4,a1
   12a30:	fcf42e23          	sw	a5,-36(s0)
   12a34:	87ba                	mv	a5,a4
   12a36:	fcf42c23          	sw	a5,-40(s0)
   12a3a:	0d200893          	li	a7,210
   12a3e:	00000073          	ecall
   12a42:	87aa                	mv	a5,a0
   12a44:	fef42623          	sw	a5,-20(s0)
   12a48:	fec42783          	lw	a5,-20(s0)
   12a4c:	853e                	mv	a0,a5
   12a4e:	7422                	ld	s0,40(sp)
   12a50:	6145                	add	sp,sp,48
   12a52:	8082                	ret

0000000000012a54 <_Z11rev_sendmsgiP11user_msghdrj>:
   12a54:	7179                	add	sp,sp,-48
   12a56:	f422                	sd	s0,40(sp)
   12a58:	1800                	add	s0,sp,48
   12a5a:	87aa                	mv	a5,a0
   12a5c:	fcb43823          	sd	a1,-48(s0)
   12a60:	8732                	mv	a4,a2
   12a62:	fcf42e23          	sw	a5,-36(s0)
   12a66:	87ba                	mv	a5,a4
   12a68:	fcf42c23          	sw	a5,-40(s0)
   12a6c:	0d300893          	li	a7,211
   12a70:	00000073          	ecall
   12a74:	87aa                	mv	a5,a0
   12a76:	fef42623          	sw	a5,-20(s0)
   12a7a:	fec42783          	lw	a5,-20(s0)
   12a7e:	853e                	mv	a0,a5
   12a80:	7422                	ld	s0,40(sp)
   12a82:	6145                	add	sp,sp,48
   12a84:	8082                	ret

0000000000012a86 <_Z11rev_recvmsgiP11user_msghdrj>:
   12a86:	7179                	add	sp,sp,-48
   12a88:	f422                	sd	s0,40(sp)
   12a8a:	1800                	add	s0,sp,48
   12a8c:	87aa                	mv	a5,a0
   12a8e:	fcb43823          	sd	a1,-48(s0)
   12a92:	8732                	mv	a4,a2
   12a94:	fcf42e23          	sw	a5,-36(s0)
   12a98:	87ba                	mv	a5,a4
   12a9a:	fcf42c23          	sw	a5,-40(s0)
   12a9e:	0d400893          	li	a7,212
   12aa2:	00000073          	ecall
   12aa6:	87aa                	mv	a5,a0
   12aa8:	fef42623          	sw	a5,-20(s0)
   12aac:	fec42783          	lw	a5,-20(s0)
   12ab0:	853e                	mv	a0,a5
   12ab2:	7422                	ld	s0,40(sp)
   12ab4:	6145                	add	sp,sp,48
   12ab6:	8082                	ret

0000000000012ab8 <_Z13rev_readaheadilm>:
   12ab8:	7139                	add	sp,sp,-64
   12aba:	fc22                	sd	s0,56(sp)
   12abc:	0080                	add	s0,sp,64
   12abe:	87aa                	mv	a5,a0
   12ac0:	fcb43823          	sd	a1,-48(s0)
   12ac4:	fcc43423          	sd	a2,-56(s0)
   12ac8:	fcf42e23          	sw	a5,-36(s0)
   12acc:	0d500893          	li	a7,213
   12ad0:	00000073          	ecall
   12ad4:	87aa                	mv	a5,a0
   12ad6:	fef42623          	sw	a5,-20(s0)
   12ada:	fec42783          	lw	a5,-20(s0)
   12ade:	853e                	mv	a0,a5
   12ae0:	7462                	ld	s0,56(sp)
   12ae2:	6121                	add	sp,sp,64
   12ae4:	8082                	ret

0000000000012ae6 <_Z7rev_brkm>:
   12ae6:	7179                	add	sp,sp,-48
   12ae8:	f422                	sd	s0,40(sp)
   12aea:	1800                	add	s0,sp,48
   12aec:	fca43c23          	sd	a0,-40(s0)
   12af0:	0d600893          	li	a7,214
   12af4:	00000073          	ecall
   12af8:	87aa                	mv	a5,a0
   12afa:	fef42623          	sw	a5,-20(s0)
   12afe:	fec42783          	lw	a5,-20(s0)
   12b02:	853e                	mv	a0,a5
   12b04:	7422                	ld	s0,40(sp)
   12b06:	6145                	add	sp,sp,48
   12b08:	8082                	ret

0000000000012b0a <_Z10rev_munmapmm>:
   12b0a:	7179                	add	sp,sp,-48
   12b0c:	f422                	sd	s0,40(sp)
   12b0e:	1800                	add	s0,sp,48
   12b10:	fca43c23          	sd	a0,-40(s0)
   12b14:	fcb43823          	sd	a1,-48(s0)
   12b18:	0d700893          	li	a7,215
   12b1c:	00000073          	ecall
   12b20:	87aa                	mv	a5,a0
   12b22:	fef42623          	sw	a5,-20(s0)
   12b26:	fec42783          	lw	a5,-20(s0)
   12b2a:	853e                	mv	a0,a5
   12b2c:	7422                	ld	s0,40(sp)
   12b2e:	6145                	add	sp,sp,48
   12b30:	8082                	ret

0000000000012b32 <_Z10rev_mremapmmmmm>:
   12b32:	715d                	add	sp,sp,-80
   12b34:	e4a2                	sd	s0,72(sp)
   12b36:	0880                	add	s0,sp,80
   12b38:	fca43c23          	sd	a0,-40(s0)
   12b3c:	fcb43823          	sd	a1,-48(s0)
   12b40:	fcc43423          	sd	a2,-56(s0)
   12b44:	fcd43023          	sd	a3,-64(s0)
   12b48:	fae43c23          	sd	a4,-72(s0)
   12b4c:	0d800893          	li	a7,216
   12b50:	00000073          	ecall
   12b54:	87aa                	mv	a5,a0
   12b56:	fef42623          	sw	a5,-20(s0)
   12b5a:	fec42783          	lw	a5,-20(s0)
   12b5e:	853e                	mv	a0,a5
   12b60:	6426                	ld	s0,72(sp)
   12b62:	6161                	add	sp,sp,80
   12b64:	8082                	ret

0000000000012b66 <_Z11rev_add_keyPKcS0_PKvmi>:
   12b66:	715d                	add	sp,sp,-80
   12b68:	e4a2                	sd	s0,72(sp)
   12b6a:	0880                	add	s0,sp,80
   12b6c:	fca43c23          	sd	a0,-40(s0)
   12b70:	fcb43823          	sd	a1,-48(s0)
   12b74:	fcc43423          	sd	a2,-56(s0)
   12b78:	fcd43023          	sd	a3,-64(s0)
   12b7c:	87ba                	mv	a5,a4
   12b7e:	faf42e23          	sw	a5,-68(s0)
   12b82:	0d900893          	li	a7,217
   12b86:	00000073          	ecall
   12b8a:	87aa                	mv	a5,a0
   12b8c:	fef42623          	sw	a5,-20(s0)
   12b90:	fec42783          	lw	a5,-20(s0)
   12b94:	853e                	mv	a0,a5
   12b96:	6426                	ld	s0,72(sp)
   12b98:	6161                	add	sp,sp,80
   12b9a:	8082                	ret

0000000000012b9c <_Z15rev_request_keyPKcS0_S0_i>:
   12b9c:	7139                	add	sp,sp,-64
   12b9e:	fc22                	sd	s0,56(sp)
   12ba0:	0080                	add	s0,sp,64
   12ba2:	fca43c23          	sd	a0,-40(s0)
   12ba6:	fcb43823          	sd	a1,-48(s0)
   12baa:	fcc43423          	sd	a2,-56(s0)
   12bae:	87b6                	mv	a5,a3
   12bb0:	fcf42223          	sw	a5,-60(s0)
   12bb4:	0da00893          	li	a7,218
   12bb8:	00000073          	ecall
   12bbc:	87aa                	mv	a5,a0
   12bbe:	fef42623          	sw	a5,-20(s0)
   12bc2:	fec42783          	lw	a5,-20(s0)
   12bc6:	853e                	mv	a0,a5
   12bc8:	7462                	ld	s0,56(sp)
   12bca:	6121                	add	sp,sp,64
   12bcc:	8082                	ret

0000000000012bce <_Z10rev_keyctlimmmm>:
   12bce:	715d                	add	sp,sp,-80
   12bd0:	e4a2                	sd	s0,72(sp)
   12bd2:	0880                	add	s0,sp,80
   12bd4:	87aa                	mv	a5,a0
   12bd6:	fcb43823          	sd	a1,-48(s0)
   12bda:	fcc43423          	sd	a2,-56(s0)
   12bde:	fcd43023          	sd	a3,-64(s0)
   12be2:	fae43c23          	sd	a4,-72(s0)
   12be6:	fcf42e23          	sw	a5,-36(s0)
   12bea:	0db00893          	li	a7,219
   12bee:	00000073          	ecall
   12bf2:	87aa                	mv	a5,a0
   12bf4:	fef42623          	sw	a5,-20(s0)
   12bf8:	fec42783          	lw	a5,-20(s0)
   12bfc:	853e                	mv	a0,a5
   12bfe:	6426                	ld	s0,72(sp)
   12c00:	6161                	add	sp,sp,80
   12c02:	8082                	ret

0000000000012c04 <_Z8rev_forkv>:
   12c04:	1101                	add	sp,sp,-32
   12c06:	ec22                	sd	s0,24(sp)
   12c08:	1000                	add	s0,sp,32
   12c0a:	0dc00893          	li	a7,220
   12c0e:	00000073          	ecall
   12c12:	87aa                	mv	a5,a0
   12c14:	fef42623          	sw	a5,-20(s0)
   12c18:	fec42783          	lw	a5,-20(s0)
   12c1c:	853e                	mv	a0,a5
   12c1e:	6462                	ld	s0,24(sp)
   12c20:	6105                	add	sp,sp,32
   12c22:	8082                	ret

0000000000012c24 <_Z9rev_clonemmPimS_>:
   12c24:	715d                	add	sp,sp,-80
   12c26:	e4a2                	sd	s0,72(sp)
   12c28:	0880                	add	s0,sp,80
   12c2a:	fca43c23          	sd	a0,-40(s0)
   12c2e:	fcb43823          	sd	a1,-48(s0)
   12c32:	fcc43423          	sd	a2,-56(s0)
   12c36:	fcd43023          	sd	a3,-64(s0)
   12c3a:	fae43c23          	sd	a4,-72(s0)
   12c3e:	0dc00893          	li	a7,220
   12c42:	00000073          	ecall
   12c46:	87aa                	mv	a5,a0
   12c48:	fef42623          	sw	a5,-20(s0)
   12c4c:	fec42783          	lw	a5,-20(s0)
   12c50:	853e                	mv	a0,a5
   12c52:	6426                	ld	s0,72(sp)
   12c54:	6161                	add	sp,sp,80
   12c56:	8082                	ret

0000000000012c58 <_Z10rev_execvePKcPKS0_S2_>:
   12c58:	7139                	add	sp,sp,-64
   12c5a:	fc22                	sd	s0,56(sp)
   12c5c:	0080                	add	s0,sp,64
   12c5e:	fca43c23          	sd	a0,-40(s0)
   12c62:	fcb43823          	sd	a1,-48(s0)
   12c66:	fcc43423          	sd	a2,-56(s0)
   12c6a:	0dd00893          	li	a7,221
   12c6e:	00000073          	ecall
   12c72:	87aa                	mv	a5,a0
   12c74:	fef42623          	sw	a5,-20(s0)
   12c78:	fec42783          	lw	a5,-20(s0)
   12c7c:	853e                	mv	a0,a5
   12c7e:	7462                	ld	s0,56(sp)
   12c80:	6121                	add	sp,sp,64
   12c82:	8082                	ret

0000000000012c84 <_Z8rev_mmapmmiiil>:
   12c84:	715d                	add	sp,sp,-80
   12c86:	e4a2                	sd	s0,72(sp)
   12c88:	0880                	add	s0,sp,80
   12c8a:	fca43c23          	sd	a0,-40(s0)
   12c8e:	fcb43823          	sd	a1,-48(s0)
   12c92:	faf43c23          	sd	a5,-72(s0)
   12c96:	87b2                	mv	a5,a2
   12c98:	fcf42623          	sw	a5,-52(s0)
   12c9c:	87b6                	mv	a5,a3
   12c9e:	fcf42423          	sw	a5,-56(s0)
   12ca2:	87ba                	mv	a5,a4
   12ca4:	fcf42223          	sw	a5,-60(s0)
   12ca8:	0de00893          	li	a7,222
   12cac:	00000073          	ecall
   12cb0:	87aa                	mv	a5,a0
   12cb2:	fef42623          	sw	a5,-20(s0)
   12cb6:	fec42783          	lw	a5,-20(s0)
   12cba:	853e                	mv	a0,a5
   12cbc:	6426                	ld	s0,72(sp)
   12cbe:	6161                	add	sp,sp,80
   12cc0:	8082                	ret

0000000000012cc2 <_Z16rev_fadvise64_64illi>:
   12cc2:	7139                	add	sp,sp,-64
   12cc4:	fc22                	sd	s0,56(sp)
   12cc6:	0080                	add	s0,sp,64
   12cc8:	87aa                	mv	a5,a0
   12cca:	fcb43823          	sd	a1,-48(s0)
   12cce:	fcc43423          	sd	a2,-56(s0)
   12cd2:	8736                	mv	a4,a3
   12cd4:	fcf42e23          	sw	a5,-36(s0)
   12cd8:	87ba                	mv	a5,a4
   12cda:	fcf42c23          	sw	a5,-40(s0)
   12cde:	0df00893          	li	a7,223
   12ce2:	00000073          	ecall
   12ce6:	87aa                	mv	a5,a0
   12ce8:	fef42623          	sw	a5,-20(s0)
   12cec:	fec42783          	lw	a5,-20(s0)
   12cf0:	853e                	mv	a0,a5
   12cf2:	7462                	ld	s0,56(sp)
   12cf4:	6121                	add	sp,sp,64
   12cf6:	8082                	ret

0000000000012cf8 <_Z10rev_swaponPKci>:
   12cf8:	7179                	add	sp,sp,-48
   12cfa:	f422                	sd	s0,40(sp)
   12cfc:	1800                	add	s0,sp,48
   12cfe:	fca43c23          	sd	a0,-40(s0)
   12d02:	87ae                	mv	a5,a1
   12d04:	fcf42a23          	sw	a5,-44(s0)
   12d08:	0e000893          	li	a7,224
   12d0c:	00000073          	ecall
   12d10:	87aa                	mv	a5,a0
   12d12:	fef42623          	sw	a5,-20(s0)
   12d16:	fec42783          	lw	a5,-20(s0)
   12d1a:	853e                	mv	a0,a5
   12d1c:	7422                	ld	s0,40(sp)
   12d1e:	6145                	add	sp,sp,48
   12d20:	8082                	ret

0000000000012d22 <_Z11rev_swapoffPKc>:
   12d22:	7179                	add	sp,sp,-48
   12d24:	f422                	sd	s0,40(sp)
   12d26:	1800                	add	s0,sp,48
   12d28:	fca43c23          	sd	a0,-40(s0)
   12d2c:	0e100893          	li	a7,225
   12d30:	00000073          	ecall
   12d34:	87aa                	mv	a5,a0
   12d36:	fef42623          	sw	a5,-20(s0)
   12d3a:	fec42783          	lw	a5,-20(s0)
   12d3e:	853e                	mv	a0,a5
   12d40:	7422                	ld	s0,40(sp)
   12d42:	6145                	add	sp,sp,48
   12d44:	8082                	ret

0000000000012d46 <_Z12rev_mprotectmmm>:
   12d46:	7139                	add	sp,sp,-64
   12d48:	fc22                	sd	s0,56(sp)
   12d4a:	0080                	add	s0,sp,64
   12d4c:	fca43c23          	sd	a0,-40(s0)
   12d50:	fcb43823          	sd	a1,-48(s0)
   12d54:	fcc43423          	sd	a2,-56(s0)
   12d58:	0e200893          	li	a7,226
   12d5c:	00000073          	ecall
   12d60:	87aa                	mv	a5,a0
   12d62:	fef42623          	sw	a5,-20(s0)
   12d66:	fec42783          	lw	a5,-20(s0)
   12d6a:	853e                	mv	a0,a5
   12d6c:	7462                	ld	s0,56(sp)
   12d6e:	6121                	add	sp,sp,64
   12d70:	8082                	ret

0000000000012d72 <_Z9rev_msyncmmi>:
   12d72:	7139                	add	sp,sp,-64
   12d74:	fc22                	sd	s0,56(sp)
   12d76:	0080                	add	s0,sp,64
   12d78:	fca43c23          	sd	a0,-40(s0)
   12d7c:	fcb43823          	sd	a1,-48(s0)
   12d80:	87b2                	mv	a5,a2
   12d82:	fcf42623          	sw	a5,-52(s0)
   12d86:	0e300893          	li	a7,227
   12d8a:	00000073          	ecall
   12d8e:	87aa                	mv	a5,a0
   12d90:	fef42623          	sw	a5,-20(s0)
   12d94:	fec42783          	lw	a5,-20(s0)
   12d98:	853e                	mv	a0,a5
   12d9a:	7462                	ld	s0,56(sp)
   12d9c:	6121                	add	sp,sp,64
   12d9e:	8082                	ret

0000000000012da0 <_Z9rev_mlockmm>:
   12da0:	7179                	add	sp,sp,-48
   12da2:	f422                	sd	s0,40(sp)
   12da4:	1800                	add	s0,sp,48
   12da6:	fca43c23          	sd	a0,-40(s0)
   12daa:	fcb43823          	sd	a1,-48(s0)
   12dae:	0e400893          	li	a7,228
   12db2:	00000073          	ecall
   12db6:	87aa                	mv	a5,a0
   12db8:	fef42623          	sw	a5,-20(s0)
   12dbc:	fec42783          	lw	a5,-20(s0)
   12dc0:	853e                	mv	a0,a5
   12dc2:	7422                	ld	s0,40(sp)
   12dc4:	6145                	add	sp,sp,48
   12dc6:	8082                	ret

0000000000012dc8 <_Z11rev_munlockmm>:
   12dc8:	7179                	add	sp,sp,-48
   12dca:	f422                	sd	s0,40(sp)
   12dcc:	1800                	add	s0,sp,48
   12dce:	fca43c23          	sd	a0,-40(s0)
   12dd2:	fcb43823          	sd	a1,-48(s0)
   12dd6:	0e500893          	li	a7,229
   12dda:	00000073          	ecall
   12dde:	87aa                	mv	a5,a0
   12de0:	fef42623          	sw	a5,-20(s0)
   12de4:	fec42783          	lw	a5,-20(s0)
   12de8:	853e                	mv	a0,a5
   12dea:	7422                	ld	s0,40(sp)
   12dec:	6145                	add	sp,sp,48
   12dee:	8082                	ret

0000000000012df0 <_Z12rev_mlockalli>:
   12df0:	7179                	add	sp,sp,-48
   12df2:	f422                	sd	s0,40(sp)
   12df4:	1800                	add	s0,sp,48
   12df6:	87aa                	mv	a5,a0
   12df8:	fcf42e23          	sw	a5,-36(s0)
   12dfc:	0e600893          	li	a7,230
   12e00:	00000073          	ecall
   12e04:	87aa                	mv	a5,a0
   12e06:	fef42623          	sw	a5,-20(s0)
   12e0a:	fec42783          	lw	a5,-20(s0)
   12e0e:	853e                	mv	a0,a5
   12e10:	7422                	ld	s0,40(sp)
   12e12:	6145                	add	sp,sp,48
   12e14:	8082                	ret

0000000000012e16 <_Z14rev_munlockallv>:
   12e16:	1101                	add	sp,sp,-32
   12e18:	ec22                	sd	s0,24(sp)
   12e1a:	1000                	add	s0,sp,32
   12e1c:	0e700893          	li	a7,231
   12e20:	00000073          	ecall
   12e24:	87aa                	mv	a5,a0
   12e26:	fef42623          	sw	a5,-20(s0)
   12e2a:	fec42783          	lw	a5,-20(s0)
   12e2e:	853e                	mv	a0,a5
   12e30:	6462                	ld	s0,24(sp)
   12e32:	6105                	add	sp,sp,32
   12e34:	8082                	ret

0000000000012e36 <_Z11rev_mincoremmPh>:
   12e36:	7139                	add	sp,sp,-64
   12e38:	fc22                	sd	s0,56(sp)
   12e3a:	0080                	add	s0,sp,64
   12e3c:	fca43c23          	sd	a0,-40(s0)
   12e40:	fcb43823          	sd	a1,-48(s0)
   12e44:	fcc43423          	sd	a2,-56(s0)
   12e48:	0e800893          	li	a7,232
   12e4c:	00000073          	ecall
   12e50:	87aa                	mv	a5,a0
   12e52:	fef42623          	sw	a5,-20(s0)
   12e56:	fec42783          	lw	a5,-20(s0)
   12e5a:	853e                	mv	a0,a5
   12e5c:	7462                	ld	s0,56(sp)
   12e5e:	6121                	add	sp,sp,64
   12e60:	8082                	ret

0000000000012e62 <_Z11rev_madvisemmi>:
   12e62:	7139                	add	sp,sp,-64
   12e64:	fc22                	sd	s0,56(sp)
   12e66:	0080                	add	s0,sp,64
   12e68:	fca43c23          	sd	a0,-40(s0)
   12e6c:	fcb43823          	sd	a1,-48(s0)
   12e70:	87b2                	mv	a5,a2
   12e72:	fcf42623          	sw	a5,-52(s0)
   12e76:	0e900893          	li	a7,233
   12e7a:	00000073          	ecall
   12e7e:	87aa                	mv	a5,a0
   12e80:	fef42623          	sw	a5,-20(s0)
   12e84:	fec42783          	lw	a5,-20(s0)
   12e88:	853e                	mv	a0,a5
   12e8a:	7462                	ld	s0,56(sp)
   12e8c:	6121                	add	sp,sp,64
   12e8e:	8082                	ret

0000000000012e90 <_Z20rev_remap_file_pagesmmmmm>:
   12e90:	715d                	add	sp,sp,-80
   12e92:	e4a2                	sd	s0,72(sp)
   12e94:	0880                	add	s0,sp,80
   12e96:	fca43c23          	sd	a0,-40(s0)
   12e9a:	fcb43823          	sd	a1,-48(s0)
   12e9e:	fcc43423          	sd	a2,-56(s0)
   12ea2:	fcd43023          	sd	a3,-64(s0)
   12ea6:	fae43c23          	sd	a4,-72(s0)
   12eaa:	0ea00893          	li	a7,234
   12eae:	00000073          	ecall
   12eb2:	87aa                	mv	a5,a0
   12eb4:	fef42623          	sw	a5,-20(s0)
   12eb8:	fec42783          	lw	a5,-20(s0)
   12ebc:	853e                	mv	a0,a5
   12ebe:	6426                	ld	s0,72(sp)
   12ec0:	6161                	add	sp,sp,80
   12ec2:	8082                	ret

0000000000012ec4 <_Z9rev_mbindmmmPKmmj>:
   12ec4:	715d                	add	sp,sp,-80
   12ec6:	e4a2                	sd	s0,72(sp)
   12ec8:	0880                	add	s0,sp,80
   12eca:	fca43c23          	sd	a0,-40(s0)
   12ece:	fcb43823          	sd	a1,-48(s0)
   12ed2:	fcc43423          	sd	a2,-56(s0)
   12ed6:	fcd43023          	sd	a3,-64(s0)
   12eda:	fae43c23          	sd	a4,-72(s0)
   12ede:	faf42a23          	sw	a5,-76(s0)
   12ee2:	0eb00893          	li	a7,235
   12ee6:	00000073          	ecall
   12eea:	87aa                	mv	a5,a0
   12eec:	fef42623          	sw	a5,-20(s0)
   12ef0:	fec42783          	lw	a5,-20(s0)
   12ef4:	853e                	mv	a0,a5
   12ef6:	6426                	ld	s0,72(sp)
   12ef8:	6161                	add	sp,sp,80
   12efa:	8082                	ret

0000000000012efc <_Z17rev_get_mempolicyPiPmmmm>:
   12efc:	715d                	add	sp,sp,-80
   12efe:	e4a2                	sd	s0,72(sp)
   12f00:	0880                	add	s0,sp,80
   12f02:	fca43c23          	sd	a0,-40(s0)
   12f06:	fcb43823          	sd	a1,-48(s0)
   12f0a:	fcc43423          	sd	a2,-56(s0)
   12f0e:	fcd43023          	sd	a3,-64(s0)
   12f12:	fae43c23          	sd	a4,-72(s0)
   12f16:	0ec00893          	li	a7,236
   12f1a:	00000073          	ecall
   12f1e:	87aa                	mv	a5,a0
   12f20:	fef42623          	sw	a5,-20(s0)
   12f24:	fec42783          	lw	a5,-20(s0)
   12f28:	853e                	mv	a0,a5
   12f2a:	6426                	ld	s0,72(sp)
   12f2c:	6161                	add	sp,sp,80
   12f2e:	8082                	ret

0000000000012f30 <_Z17rev_set_mempolicyiPKmm>:
   12f30:	7139                	add	sp,sp,-64
   12f32:	fc22                	sd	s0,56(sp)
   12f34:	0080                	add	s0,sp,64
   12f36:	87aa                	mv	a5,a0
   12f38:	fcb43823          	sd	a1,-48(s0)
   12f3c:	fcc43423          	sd	a2,-56(s0)
   12f40:	fcf42e23          	sw	a5,-36(s0)
   12f44:	0ed00893          	li	a7,237
   12f48:	00000073          	ecall
   12f4c:	87aa                	mv	a5,a0
   12f4e:	fef42623          	sw	a5,-20(s0)
   12f52:	fec42783          	lw	a5,-20(s0)
   12f56:	853e                	mv	a0,a5
   12f58:	7462                	ld	s0,56(sp)
   12f5a:	6121                	add	sp,sp,64
   12f5c:	8082                	ret

0000000000012f5e <_Z17rev_migrate_pagesimPKmS0_>:
   12f5e:	7139                	add	sp,sp,-64
   12f60:	fc22                	sd	s0,56(sp)
   12f62:	0080                	add	s0,sp,64
   12f64:	87aa                	mv	a5,a0
   12f66:	fcb43823          	sd	a1,-48(s0)
   12f6a:	fcc43423          	sd	a2,-56(s0)
   12f6e:	fcd43023          	sd	a3,-64(s0)
   12f72:	fcf42e23          	sw	a5,-36(s0)
   12f76:	0ee00893          	li	a7,238
   12f7a:	00000073          	ecall
   12f7e:	87aa                	mv	a5,a0
   12f80:	fef42623          	sw	a5,-20(s0)
   12f84:	fec42783          	lw	a5,-20(s0)
   12f88:	853e                	mv	a0,a5
   12f8a:	7462                	ld	s0,56(sp)
   12f8c:	6121                	add	sp,sp,64
   12f8e:	8082                	ret

0000000000012f90 <_Z14rev_move_pagesimPPKvPKiPii>:
   12f90:	715d                	add	sp,sp,-80
   12f92:	e4a2                	sd	s0,72(sp)
   12f94:	0880                	add	s0,sp,80
   12f96:	fcb43823          	sd	a1,-48(s0)
   12f9a:	fcc43423          	sd	a2,-56(s0)
   12f9e:	fcd43023          	sd	a3,-64(s0)
   12fa2:	fae43c23          	sd	a4,-72(s0)
   12fa6:	873e                	mv	a4,a5
   12fa8:	87aa                	mv	a5,a0
   12faa:	fcf42e23          	sw	a5,-36(s0)
   12fae:	87ba                	mv	a5,a4
   12fb0:	fcf42c23          	sw	a5,-40(s0)
   12fb4:	0ef00893          	li	a7,239
   12fb8:	00000073          	ecall
   12fbc:	87aa                	mv	a5,a0
   12fbe:	fef42623          	sw	a5,-20(s0)
   12fc2:	fec42783          	lw	a5,-20(s0)
   12fc6:	853e                	mv	a0,a5
   12fc8:	6426                	ld	s0,72(sp)
   12fca:	6161                	add	sp,sp,80
   12fcc:	8082                	ret

0000000000012fce <_Z21rev_rt_tgsigqueueinfoiiiP9siginfo_t>:
   12fce:	7139                	add	sp,sp,-64
   12fd0:	fc22                	sd	s0,56(sp)
   12fd2:	0080                	add	s0,sp,64
   12fd4:	87aa                	mv	a5,a0
   12fd6:	8732                	mv	a4,a2
   12fd8:	fcd43423          	sd	a3,-56(s0)
   12fdc:	fcf42e23          	sw	a5,-36(s0)
   12fe0:	87ae                	mv	a5,a1
   12fe2:	fcf42c23          	sw	a5,-40(s0)
   12fe6:	87ba                	mv	a5,a4
   12fe8:	fcf42a23          	sw	a5,-44(s0)
   12fec:	0f000893          	li	a7,240
   12ff0:	00000073          	ecall
   12ff4:	87aa                	mv	a5,a0
   12ff6:	fef42623          	sw	a5,-20(s0)
   12ffa:	fec42783          	lw	a5,-20(s0)
   12ffe:	853e                	mv	a0,a5
   13000:	7462                	ld	s0,56(sp)
   13002:	6121                	add	sp,sp,64
   13004:	8082                	ret

0000000000013006 <_Z19rev_perf_event_openv>:
   13006:	1101                	add	sp,sp,-32
   13008:	ec22                	sd	s0,24(sp)
   1300a:	1000                	add	s0,sp,32
   1300c:	0f100893          	li	a7,241
   13010:	00000073          	ecall
   13014:	87aa                	mv	a5,a0
   13016:	fef42623          	sw	a5,-20(s0)
   1301a:	fec42783          	lw	a5,-20(s0)
   1301e:	853e                	mv	a0,a5
   13020:	6462                	ld	s0,24(sp)
   13022:	6105                	add	sp,sp,32
   13024:	8082                	ret

0000000000013026 <_Z11rev_accept4iP8sockaddrPii>:
   13026:	7139                	add	sp,sp,-64
   13028:	fc22                	sd	s0,56(sp)
   1302a:	0080                	add	s0,sp,64
   1302c:	87aa                	mv	a5,a0
   1302e:	fcb43823          	sd	a1,-48(s0)
   13032:	fcc43423          	sd	a2,-56(s0)
   13036:	8736                	mv	a4,a3
   13038:	fcf42e23          	sw	a5,-36(s0)
   1303c:	87ba                	mv	a5,a4
   1303e:	fcf42c23          	sw	a5,-40(s0)
   13042:	0f200893          	li	a7,242
   13046:	00000073          	ecall
   1304a:	87aa                	mv	a5,a0
   1304c:	fef42623          	sw	a5,-20(s0)
   13050:	fec42783          	lw	a5,-20(s0)
   13054:	853e                	mv	a0,a5
   13056:	7462                	ld	s0,56(sp)
   13058:	6121                	add	sp,sp,64
   1305a:	8082                	ret

000000000001305c <_Z19rev_recvmmsg_time32iP7mmsghdrjjP14old_timespec32>:
   1305c:	7139                	add	sp,sp,-64
   1305e:	fc22                	sd	s0,56(sp)
   13060:	0080                	add	s0,sp,64
   13062:	87aa                	mv	a5,a0
   13064:	fcb43823          	sd	a1,-48(s0)
   13068:	fce43023          	sd	a4,-64(s0)
   1306c:	fcf42e23          	sw	a5,-36(s0)
   13070:	87b2                	mv	a5,a2
   13072:	fcf42c23          	sw	a5,-40(s0)
   13076:	87b6                	mv	a5,a3
   13078:	fcf42623          	sw	a5,-52(s0)
   1307c:	0f300893          	li	a7,243
   13080:	00000073          	ecall
   13084:	87aa                	mv	a5,a0
   13086:	fef42623          	sw	a5,-20(s0)
   1308a:	fec42783          	lw	a5,-20(s0)
   1308e:	853e                	mv	a0,a5
   13090:	7462                	ld	s0,56(sp)
   13092:	6121                	add	sp,sp,64
   13094:	8082                	ret

0000000000013096 <_Z9rev_wait4iPiiP6rusage>:
   13096:	7139                	add	sp,sp,-64
   13098:	fc22                	sd	s0,56(sp)
   1309a:	0080                	add	s0,sp,64
   1309c:	87aa                	mv	a5,a0
   1309e:	fcb43823          	sd	a1,-48(s0)
   130a2:	8732                	mv	a4,a2
   130a4:	fcd43423          	sd	a3,-56(s0)
   130a8:	fcf42e23          	sw	a5,-36(s0)
   130ac:	87ba                	mv	a5,a4
   130ae:	fcf42c23          	sw	a5,-40(s0)
   130b2:	10400893          	li	a7,260
   130b6:	00000073          	ecall
   130ba:	87aa                	mv	a5,a0
   130bc:	fef42623          	sw	a5,-20(s0)
   130c0:	fec42783          	lw	a5,-20(s0)
   130c4:	853e                	mv	a0,a5
   130c6:	7462                	ld	s0,56(sp)
   130c8:	6121                	add	sp,sp,64
   130ca:	8082                	ret

00000000000130cc <_Z13rev_prlimit64ijPK8rlimit64PS_>:
   130cc:	7139                	add	sp,sp,-64
   130ce:	fc22                	sd	s0,56(sp)
   130d0:	0080                	add	s0,sp,64
   130d2:	87aa                	mv	a5,a0
   130d4:	872e                	mv	a4,a1
   130d6:	fcc43823          	sd	a2,-48(s0)
   130da:	fcd43423          	sd	a3,-56(s0)
   130de:	fcf42e23          	sw	a5,-36(s0)
   130e2:	87ba                	mv	a5,a4
   130e4:	fcf42c23          	sw	a5,-40(s0)
   130e8:	10500893          	li	a7,261
   130ec:	00000073          	ecall
   130f0:	87aa                	mv	a5,a0
   130f2:	fef42623          	sw	a5,-20(s0)
   130f6:	fec42783          	lw	a5,-20(s0)
   130fa:	853e                	mv	a0,a5
   130fc:	7462                	ld	s0,56(sp)
   130fe:	6121                	add	sp,sp,64
   13100:	8082                	ret

0000000000013102 <_Z17rev_fanotify_initjj>:
   13102:	7179                	add	sp,sp,-48
   13104:	f422                	sd	s0,40(sp)
   13106:	1800                	add	s0,sp,48
   13108:	87aa                	mv	a5,a0
   1310a:	872e                	mv	a4,a1
   1310c:	fcf42e23          	sw	a5,-36(s0)
   13110:	87ba                	mv	a5,a4
   13112:	fcf42c23          	sw	a5,-40(s0)
   13116:	10600893          	li	a7,262
   1311a:	00000073          	ecall
   1311e:	87aa                	mv	a5,a0
   13120:	fef42623          	sw	a5,-20(s0)
   13124:	fec42783          	lw	a5,-20(s0)
   13128:	853e                	mv	a0,a5
   1312a:	7422                	ld	s0,40(sp)
   1312c:	6145                	add	sp,sp,48
   1312e:	8082                	ret

0000000000013130 <_Z17rev_fanotify_markijmiPKc>:
   13130:	7139                	add	sp,sp,-64
   13132:	fc22                	sd	s0,56(sp)
   13134:	0080                	add	s0,sp,64
   13136:	87aa                	mv	a5,a0
   13138:	fcc43823          	sd	a2,-48(s0)
   1313c:	fce43023          	sd	a4,-64(s0)
   13140:	fcf42e23          	sw	a5,-36(s0)
   13144:	87ae                	mv	a5,a1
   13146:	fcf42c23          	sw	a5,-40(s0)
   1314a:	87b6                	mv	a5,a3
   1314c:	fcf42623          	sw	a5,-52(s0)
   13150:	10700893          	li	a7,263
   13154:	00000073          	ecall
   13158:	87aa                	mv	a5,a0
   1315a:	fef42623          	sw	a5,-20(s0)
   1315e:	fec42783          	lw	a5,-20(s0)
   13162:	853e                	mv	a0,a5
   13164:	7462                	ld	s0,56(sp)
   13166:	6121                	add	sp,sp,64
   13168:	8082                	ret

000000000001316a <_Z21rev_name_to_handle_atiPKcP11file_handlePii>:
   1316a:	7139                	add	sp,sp,-64
   1316c:	fc22                	sd	s0,56(sp)
   1316e:	0080                	add	s0,sp,64
   13170:	87aa                	mv	a5,a0
   13172:	fcb43823          	sd	a1,-48(s0)
   13176:	fcc43423          	sd	a2,-56(s0)
   1317a:	fcd43023          	sd	a3,-64(s0)
   1317e:	fcf42e23          	sw	a5,-36(s0)
   13182:	87ba                	mv	a5,a4
   13184:	fcf42c23          	sw	a5,-40(s0)
   13188:	10800893          	li	a7,264
   1318c:	00000073          	ecall
   13190:	87aa                	mv	a5,a0
   13192:	fef42623          	sw	a5,-20(s0)
   13196:	fec42783          	lw	a5,-20(s0)
   1319a:	853e                	mv	a0,a5
   1319c:	7462                	ld	s0,56(sp)
   1319e:	6121                	add	sp,sp,64
   131a0:	8082                	ret

00000000000131a2 <_Z21rev_open_by_handle_atiP11file_handlei>:
   131a2:	7179                	add	sp,sp,-48
   131a4:	f422                	sd	s0,40(sp)
   131a6:	1800                	add	s0,sp,48
   131a8:	87aa                	mv	a5,a0
   131aa:	fcb43823          	sd	a1,-48(s0)
   131ae:	8732                	mv	a4,a2
   131b0:	fcf42e23          	sw	a5,-36(s0)
   131b4:	87ba                	mv	a5,a4
   131b6:	fcf42c23          	sw	a5,-40(s0)
   131ba:	10900893          	li	a7,265
   131be:	00000073          	ecall
   131c2:	87aa                	mv	a5,a0
   131c4:	fef42623          	sw	a5,-20(s0)
   131c8:	fec42783          	lw	a5,-20(s0)
   131cc:	853e                	mv	a0,a5
   131ce:	7422                	ld	s0,40(sp)
   131d0:	6145                	add	sp,sp,48
   131d2:	8082                	ret

00000000000131d4 <_Z17rev_clock_adjtimemP14__kernel_timex>:
   131d4:	7179                	add	sp,sp,-48
   131d6:	f422                	sd	s0,40(sp)
   131d8:	1800                	add	s0,sp,48
   131da:	fca43c23          	sd	a0,-40(s0)
   131de:	fcb43823          	sd	a1,-48(s0)
   131e2:	10a00893          	li	a7,266
   131e6:	00000073          	ecall
   131ea:	87aa                	mv	a5,a0
   131ec:	fef42623          	sw	a5,-20(s0)
   131f0:	fec42783          	lw	a5,-20(s0)
   131f4:	853e                	mv	a0,a5
   131f6:	7422                	ld	s0,40(sp)
   131f8:	6145                	add	sp,sp,48
   131fa:	8082                	ret

00000000000131fc <_Z10rev_syncfsi>:
   131fc:	7179                	add	sp,sp,-48
   131fe:	f422                	sd	s0,40(sp)
   13200:	1800                	add	s0,sp,48
   13202:	87aa                	mv	a5,a0
   13204:	fcf42e23          	sw	a5,-36(s0)
   13208:	10b00893          	li	a7,267
   1320c:	00000073          	ecall
   13210:	87aa                	mv	a5,a0
   13212:	fef42623          	sw	a5,-20(s0)
   13216:	fec42783          	lw	a5,-20(s0)
   1321a:	853e                	mv	a0,a5
   1321c:	7422                	ld	s0,40(sp)
   1321e:	6145                	add	sp,sp,48
   13220:	8082                	ret

0000000000013222 <_Z9rev_setnsii>:
   13222:	7179                	add	sp,sp,-48
   13224:	f422                	sd	s0,40(sp)
   13226:	1800                	add	s0,sp,48
   13228:	87aa                	mv	a5,a0
   1322a:	872e                	mv	a4,a1
   1322c:	fcf42e23          	sw	a5,-36(s0)
   13230:	87ba                	mv	a5,a4
   13232:	fcf42c23          	sw	a5,-40(s0)
   13236:	10c00893          	li	a7,268
   1323a:	00000073          	ecall
   1323e:	87aa                	mv	a5,a0
   13240:	fef42623          	sw	a5,-20(s0)
   13244:	fec42783          	lw	a5,-20(s0)
   13248:	853e                	mv	a0,a5
   1324a:	7422                	ld	s0,40(sp)
   1324c:	6145                	add	sp,sp,48
   1324e:	8082                	ret

0000000000013250 <_Z12rev_sendmmsgiP7mmsghdrjj>:
   13250:	7139                	add	sp,sp,-64
   13252:	fc22                	sd	s0,56(sp)
   13254:	0080                	add	s0,sp,64
   13256:	87aa                	mv	a5,a0
   13258:	fcb43823          	sd	a1,-48(s0)
   1325c:	8736                	mv	a4,a3
   1325e:	fcf42e23          	sw	a5,-36(s0)
   13262:	87b2                	mv	a5,a2
   13264:	fcf42c23          	sw	a5,-40(s0)
   13268:	87ba                	mv	a5,a4
   1326a:	fcf42623          	sw	a5,-52(s0)
   1326e:	10d00893          	li	a7,269
   13272:	00000073          	ecall
   13276:	87aa                	mv	a5,a0
   13278:	fef42623          	sw	a5,-20(s0)
   1327c:	fec42783          	lw	a5,-20(s0)
   13280:	853e                	mv	a0,a5
   13282:	7462                	ld	s0,56(sp)
   13284:	6121                	add	sp,sp,64
   13286:	8082                	ret

0000000000013288 <_Z20rev_process_vm_readviPK5iovecmS1_mm>:
   13288:	715d                	add	sp,sp,-80
   1328a:	e4a2                	sd	s0,72(sp)
   1328c:	0880                	add	s0,sp,80
   1328e:	fcb43823          	sd	a1,-48(s0)
   13292:	fcc43423          	sd	a2,-56(s0)
   13296:	fcd43023          	sd	a3,-64(s0)
   1329a:	fae43c23          	sd	a4,-72(s0)
   1329e:	faf43823          	sd	a5,-80(s0)
   132a2:	87aa                	mv	a5,a0
   132a4:	fcf42e23          	sw	a5,-36(s0)
   132a8:	10e00893          	li	a7,270
   132ac:	00000073          	ecall
   132b0:	87aa                	mv	a5,a0
   132b2:	fef42623          	sw	a5,-20(s0)
   132b6:	fec42783          	lw	a5,-20(s0)
   132ba:	853e                	mv	a0,a5
   132bc:	6426                	ld	s0,72(sp)
   132be:	6161                	add	sp,sp,80
   132c0:	8082                	ret

00000000000132c2 <_Z21rev_process_vm_writeviPK5iovecmS1_mm>:
   132c2:	715d                	add	sp,sp,-80
   132c4:	e4a2                	sd	s0,72(sp)
   132c6:	0880                	add	s0,sp,80
   132c8:	fcb43823          	sd	a1,-48(s0)
   132cc:	fcc43423          	sd	a2,-56(s0)
   132d0:	fcd43023          	sd	a3,-64(s0)
   132d4:	fae43c23          	sd	a4,-72(s0)
   132d8:	faf43823          	sd	a5,-80(s0)
   132dc:	87aa                	mv	a5,a0
   132de:	fcf42e23          	sw	a5,-36(s0)
   132e2:	10f00893          	li	a7,271
   132e6:	00000073          	ecall
   132ea:	87aa                	mv	a5,a0
   132ec:	fef42623          	sw	a5,-20(s0)
   132f0:	fec42783          	lw	a5,-20(s0)
   132f4:	853e                	mv	a0,a5
   132f6:	6426                	ld	s0,72(sp)
   132f8:	6161                	add	sp,sp,80
   132fa:	8082                	ret

00000000000132fc <_Z8rev_kcmpiiimm>:
   132fc:	7139                	add	sp,sp,-64
   132fe:	fc22                	sd	s0,56(sp)
   13300:	0080                	add	s0,sp,64
   13302:	87aa                	mv	a5,a0
   13304:	fcd43423          	sd	a3,-56(s0)
   13308:	fce43023          	sd	a4,-64(s0)
   1330c:	fcf42e23          	sw	a5,-36(s0)
   13310:	87ae                	mv	a5,a1
   13312:	fcf42c23          	sw	a5,-40(s0)
   13316:	87b2                	mv	a5,a2
   13318:	fcf42a23          	sw	a5,-44(s0)
   1331c:	11000893          	li	a7,272
   13320:	00000073          	ecall
   13324:	87aa                	mv	a5,a0
   13326:	fef42623          	sw	a5,-20(s0)
   1332a:	fec42783          	lw	a5,-20(s0)
   1332e:	853e                	mv	a0,a5
   13330:	7462                	ld	s0,56(sp)
   13332:	6121                	add	sp,sp,64
   13334:	8082                	ret

0000000000013336 <_Z16rev_finit_moduleiPKci>:
   13336:	7179                	add	sp,sp,-48
   13338:	f422                	sd	s0,40(sp)
   1333a:	1800                	add	s0,sp,48
   1333c:	87aa                	mv	a5,a0
   1333e:	fcb43823          	sd	a1,-48(s0)
   13342:	8732                	mv	a4,a2
   13344:	fcf42e23          	sw	a5,-36(s0)
   13348:	87ba                	mv	a5,a4
   1334a:	fcf42c23          	sw	a5,-40(s0)
   1334e:	11100893          	li	a7,273
   13352:	00000073          	ecall
   13356:	87aa                	mv	a5,a0
   13358:	fef42623          	sw	a5,-20(s0)
   1335c:	fec42783          	lw	a5,-20(s0)
   13360:	853e                	mv	a0,a5
   13362:	7422                	ld	s0,40(sp)
   13364:	6145                	add	sp,sp,48
   13366:	8082                	ret

0000000000013368 <_Z17rev_sched_setattriP10sched_attrjj>:
   13368:	7139                	add	sp,sp,-64
   1336a:	fc22                	sd	s0,56(sp)
   1336c:	0080                	add	s0,sp,64
   1336e:	87aa                	mv	a5,a0
   13370:	fcb43823          	sd	a1,-48(s0)
   13374:	8736                	mv	a4,a3
   13376:	fcf42e23          	sw	a5,-36(s0)
   1337a:	87b2                	mv	a5,a2
   1337c:	fcf42c23          	sw	a5,-40(s0)
   13380:	87ba                	mv	a5,a4
   13382:	fcf42623          	sw	a5,-52(s0)
   13386:	11200893          	li	a7,274
   1338a:	00000073          	ecall
   1338e:	87aa                	mv	a5,a0
   13390:	fef42623          	sw	a5,-20(s0)
   13394:	fec42783          	lw	a5,-20(s0)
   13398:	853e                	mv	a0,a5
   1339a:	7462                	ld	s0,56(sp)
   1339c:	6121                	add	sp,sp,64
   1339e:	8082                	ret

00000000000133a0 <_Z17rev_sched_getattriP10sched_attrjj>:
   133a0:	7139                	add	sp,sp,-64
   133a2:	fc22                	sd	s0,56(sp)
   133a4:	0080                	add	s0,sp,64
   133a6:	87aa                	mv	a5,a0
   133a8:	fcb43823          	sd	a1,-48(s0)
   133ac:	8736                	mv	a4,a3
   133ae:	fcf42e23          	sw	a5,-36(s0)
   133b2:	87b2                	mv	a5,a2
   133b4:	fcf42c23          	sw	a5,-40(s0)
   133b8:	87ba                	mv	a5,a4
   133ba:	fcf42623          	sw	a5,-52(s0)
   133be:	11300893          	li	a7,275
   133c2:	00000073          	ecall
   133c6:	87aa                	mv	a5,a0
   133c8:	fef42623          	sw	a5,-20(s0)
   133cc:	fec42783          	lw	a5,-20(s0)
   133d0:	853e                	mv	a0,a5
   133d2:	7462                	ld	s0,56(sp)
   133d4:	6121                	add	sp,sp,64
   133d6:	8082                	ret

00000000000133d8 <_Z13rev_renameat2iPKciS0_j>:
   133d8:	7139                	add	sp,sp,-64
   133da:	fc22                	sd	s0,56(sp)
   133dc:	0080                	add	s0,sp,64
   133de:	87aa                	mv	a5,a0
   133e0:	fcb43823          	sd	a1,-48(s0)
   133e4:	fcd43423          	sd	a3,-56(s0)
   133e8:	fcf42e23          	sw	a5,-36(s0)
   133ec:	87b2                	mv	a5,a2
   133ee:	fcf42c23          	sw	a5,-40(s0)
   133f2:	87ba                	mv	a5,a4
   133f4:	fcf42223          	sw	a5,-60(s0)
   133f8:	11400893          	li	a7,276
   133fc:	00000073          	ecall
   13400:	87aa                	mv	a5,a0
   13402:	fef42623          	sw	a5,-20(s0)
   13406:	fec42783          	lw	a5,-20(s0)
   1340a:	853e                	mv	a0,a5
   1340c:	7462                	ld	s0,56(sp)
   1340e:	6121                	add	sp,sp,64
   13410:	8082                	ret

0000000000013412 <_Z11rev_seccompjjPv>:
   13412:	7179                	add	sp,sp,-48
   13414:	f422                	sd	s0,40(sp)
   13416:	1800                	add	s0,sp,48
   13418:	87aa                	mv	a5,a0
   1341a:	872e                	mv	a4,a1
   1341c:	fcc43823          	sd	a2,-48(s0)
   13420:	fcf42e23          	sw	a5,-36(s0)
   13424:	87ba                	mv	a5,a4
   13426:	fcf42c23          	sw	a5,-40(s0)
   1342a:	11500893          	li	a7,277
   1342e:	00000073          	ecall
   13432:	87aa                	mv	a5,a0
   13434:	fef42623          	sw	a5,-20(s0)
   13438:	fec42783          	lw	a5,-20(s0)
   1343c:	853e                	mv	a0,a5
   1343e:	7422                	ld	s0,40(sp)
   13440:	6145                	add	sp,sp,48
   13442:	8082                	ret

0000000000013444 <_Z13rev_getrandomPcmj>:
   13444:	7139                	add	sp,sp,-64
   13446:	fc22                	sd	s0,56(sp)
   13448:	0080                	add	s0,sp,64
   1344a:	fca43c23          	sd	a0,-40(s0)
   1344e:	fcb43823          	sd	a1,-48(s0)
   13452:	87b2                	mv	a5,a2
   13454:	fcf42623          	sw	a5,-52(s0)
   13458:	11600893          	li	a7,278
   1345c:	00000073          	ecall
   13460:	87aa                	mv	a5,a0
   13462:	fef42623          	sw	a5,-20(s0)
   13466:	fec42783          	lw	a5,-20(s0)
   1346a:	853e                	mv	a0,a5
   1346c:	7462                	ld	s0,56(sp)
   1346e:	6121                	add	sp,sp,64
   13470:	8082                	ret

0000000000013472 <_Z16rev_memfd_createPKcj>:
   13472:	7179                	add	sp,sp,-48
   13474:	f422                	sd	s0,40(sp)
   13476:	1800                	add	s0,sp,48
   13478:	fca43c23          	sd	a0,-40(s0)
   1347c:	87ae                	mv	a5,a1
   1347e:	fcf42a23          	sw	a5,-44(s0)
   13482:	11700893          	li	a7,279
   13486:	00000073          	ecall
   1348a:	87aa                	mv	a5,a0
   1348c:	fef42623          	sw	a5,-20(s0)
   13490:	fec42783          	lw	a5,-20(s0)
   13494:	853e                	mv	a0,a5
   13496:	7422                	ld	s0,40(sp)
   13498:	6145                	add	sp,sp,48
   1349a:	8082                	ret

000000000001349c <_Z7rev_bpfiP8bpf_attrj>:
   1349c:	7179                	add	sp,sp,-48
   1349e:	f422                	sd	s0,40(sp)
   134a0:	1800                	add	s0,sp,48
   134a2:	87aa                	mv	a5,a0
   134a4:	fcb43823          	sd	a1,-48(s0)
   134a8:	8732                	mv	a4,a2
   134aa:	fcf42e23          	sw	a5,-36(s0)
   134ae:	87ba                	mv	a5,a4
   134b0:	fcf42c23          	sw	a5,-40(s0)
   134b4:	11800893          	li	a7,280
   134b8:	00000073          	ecall
   134bc:	87aa                	mv	a5,a0
   134be:	fef42623          	sw	a5,-20(s0)
   134c2:	fec42783          	lw	a5,-20(s0)
   134c6:	853e                	mv	a0,a5
   134c8:	7422                	ld	s0,40(sp)
   134ca:	6145                	add	sp,sp,48
   134cc:	8082                	ret

00000000000134ce <_Z12rev_execveatiPKcPKS0_S2_i>:
   134ce:	7139                	add	sp,sp,-64
   134d0:	fc22                	sd	s0,56(sp)
   134d2:	0080                	add	s0,sp,64
   134d4:	87aa                	mv	a5,a0
   134d6:	fcb43823          	sd	a1,-48(s0)
   134da:	fcc43423          	sd	a2,-56(s0)
   134de:	fcd43023          	sd	a3,-64(s0)
   134e2:	fcf42e23          	sw	a5,-36(s0)
   134e6:	87ba                	mv	a5,a4
   134e8:	fcf42c23          	sw	a5,-40(s0)
   134ec:	11900893          	li	a7,281
   134f0:	00000073          	ecall
   134f4:	87aa                	mv	a5,a0
   134f6:	fef42623          	sw	a5,-20(s0)
   134fa:	fec42783          	lw	a5,-20(s0)
   134fe:	853e                	mv	a0,a5
   13500:	7462                	ld	s0,56(sp)
   13502:	6121                	add	sp,sp,64
   13504:	8082                	ret

0000000000013506 <_Z15rev_userfaultfdi>:
   13506:	7179                	add	sp,sp,-48
   13508:	f422                	sd	s0,40(sp)
   1350a:	1800                	add	s0,sp,48
   1350c:	87aa                	mv	a5,a0
   1350e:	fcf42e23          	sw	a5,-36(s0)
   13512:	11a00893          	li	a7,282
   13516:	00000073          	ecall
   1351a:	87aa                	mv	a5,a0
   1351c:	fef42623          	sw	a5,-20(s0)
   13520:	fec42783          	lw	a5,-20(s0)
   13524:	853e                	mv	a0,a5
   13526:	7422                	ld	s0,40(sp)
   13528:	6145                	add	sp,sp,48
   1352a:	8082                	ret

000000000001352c <_Z14rev_membarrieriji>:
   1352c:	7179                	add	sp,sp,-48
   1352e:	f422                	sd	s0,40(sp)
   13530:	1800                	add	s0,sp,48
   13532:	87aa                	mv	a5,a0
   13534:	86ae                	mv	a3,a1
   13536:	8732                	mv	a4,a2
   13538:	fcf42e23          	sw	a5,-36(s0)
   1353c:	87b6                	mv	a5,a3
   1353e:	fcf42c23          	sw	a5,-40(s0)
   13542:	87ba                	mv	a5,a4
   13544:	fcf42a23          	sw	a5,-44(s0)
   13548:	11b00893          	li	a7,283
   1354c:	00000073          	ecall
   13550:	87aa                	mv	a5,a0
   13552:	fef42623          	sw	a5,-20(s0)
   13556:	fec42783          	lw	a5,-20(s0)
   1355a:	853e                	mv	a0,a5
   1355c:	7422                	ld	s0,40(sp)
   1355e:	6145                	add	sp,sp,48
   13560:	8082                	ret

0000000000013562 <_Z10rev_mlock2mmi>:
   13562:	7139                	add	sp,sp,-64
   13564:	fc22                	sd	s0,56(sp)
   13566:	0080                	add	s0,sp,64
   13568:	fca43c23          	sd	a0,-40(s0)
   1356c:	fcb43823          	sd	a1,-48(s0)
   13570:	87b2                	mv	a5,a2
   13572:	fcf42623          	sw	a5,-52(s0)
   13576:	11c00893          	li	a7,284
   1357a:	00000073          	ecall
   1357e:	87aa                	mv	a5,a0
   13580:	fef42623          	sw	a5,-20(s0)
   13584:	fec42783          	lw	a5,-20(s0)
   13588:	853e                	mv	a0,a5
   1358a:	7462                	ld	s0,56(sp)
   1358c:	6121                	add	sp,sp,64
   1358e:	8082                	ret

0000000000013590 <_Z19rev_copy_file_rangeiPliS_mj>:
   13590:	715d                	add	sp,sp,-80
   13592:	e4a2                	sd	s0,72(sp)
   13594:	0880                	add	s0,sp,80
   13596:	fcb43823          	sd	a1,-48(s0)
   1359a:	fcd43423          	sd	a3,-56(s0)
   1359e:	fce43023          	sd	a4,-64(s0)
   135a2:	873e                	mv	a4,a5
   135a4:	87aa                	mv	a5,a0
   135a6:	fcf42e23          	sw	a5,-36(s0)
   135aa:	87b2                	mv	a5,a2
   135ac:	fcf42c23          	sw	a5,-40(s0)
   135b0:	87ba                	mv	a5,a4
   135b2:	faf42e23          	sw	a5,-68(s0)
   135b6:	11d00893          	li	a7,285
   135ba:	00000073          	ecall
   135be:	87aa                	mv	a5,a0
   135c0:	fef42623          	sw	a5,-20(s0)
   135c4:	fec42783          	lw	a5,-20(s0)
   135c8:	853e                	mv	a0,a5
   135ca:	6426                	ld	s0,72(sp)
   135cc:	6161                	add	sp,sp,80
   135ce:	8082                	ret

00000000000135d0 <_Z11rev_preadv2mPK5iovecmmmj>:
   135d0:	715d                	add	sp,sp,-80
   135d2:	e4a2                	sd	s0,72(sp)
   135d4:	0880                	add	s0,sp,80
   135d6:	fca43c23          	sd	a0,-40(s0)
   135da:	fcb43823          	sd	a1,-48(s0)
   135de:	fcc43423          	sd	a2,-56(s0)
   135e2:	fcd43023          	sd	a3,-64(s0)
   135e6:	fae43c23          	sd	a4,-72(s0)
   135ea:	faf42a23          	sw	a5,-76(s0)
   135ee:	11e00893          	li	a7,286
   135f2:	00000073          	ecall
   135f6:	87aa                	mv	a5,a0
   135f8:	fef42623          	sw	a5,-20(s0)
   135fc:	fec42783          	lw	a5,-20(s0)
   13600:	853e                	mv	a0,a5
   13602:	6426                	ld	s0,72(sp)
   13604:	6161                	add	sp,sp,80
   13606:	8082                	ret

0000000000013608 <_Z12rev_pwritev2mPK5iovecmmmj>:
   13608:	715d                	add	sp,sp,-80
   1360a:	e4a2                	sd	s0,72(sp)
   1360c:	0880                	add	s0,sp,80
   1360e:	fca43c23          	sd	a0,-40(s0)
   13612:	fcb43823          	sd	a1,-48(s0)
   13616:	fcc43423          	sd	a2,-56(s0)
   1361a:	fcd43023          	sd	a3,-64(s0)
   1361e:	fae43c23          	sd	a4,-72(s0)
   13622:	faf42a23          	sw	a5,-76(s0)
   13626:	11f00893          	li	a7,287
   1362a:	00000073          	ecall
   1362e:	87aa                	mv	a5,a0
   13630:	fef42623          	sw	a5,-20(s0)
   13634:	fec42783          	lw	a5,-20(s0)
   13638:	853e                	mv	a0,a5
   1363a:	6426                	ld	s0,72(sp)
   1363c:	6161                	add	sp,sp,80
   1363e:	8082                	ret

0000000000013640 <_Z17rev_pkey_mprotectmmm>:
   13640:	7139                	add	sp,sp,-64
   13642:	fc22                	sd	s0,56(sp)
   13644:	0080                	add	s0,sp,64
   13646:	fca43c23          	sd	a0,-40(s0)
   1364a:	fcb43823          	sd	a1,-48(s0)
   1364e:	fcc43423          	sd	a2,-56(s0)
   13652:	12000893          	li	a7,288
   13656:	00000073          	ecall
   1365a:	87aa                	mv	a5,a0
   1365c:	fef42623          	sw	a5,-20(s0)
   13660:	fec42783          	lw	a5,-20(s0)
   13664:	853e                	mv	a0,a5
   13666:	7462                	ld	s0,56(sp)
   13668:	6121                	add	sp,sp,64
   1366a:	8082                	ret

000000000001366c <_Z14rev_pkey_allocmm>:
   1366c:	7179                	add	sp,sp,-48
   1366e:	f422                	sd	s0,40(sp)
   13670:	1800                	add	s0,sp,48
   13672:	fca43c23          	sd	a0,-40(s0)
   13676:	fcb43823          	sd	a1,-48(s0)
   1367a:	12100893          	li	a7,289
   1367e:	00000073          	ecall
   13682:	87aa                	mv	a5,a0
   13684:	fef42623          	sw	a5,-20(s0)
   13688:	fec42783          	lw	a5,-20(s0)
   1368c:	853e                	mv	a0,a5
   1368e:	7422                	ld	s0,40(sp)
   13690:	6145                	add	sp,sp,48
   13692:	8082                	ret

0000000000013694 <_Z13rev_pkey_freei>:
   13694:	7179                	add	sp,sp,-48
   13696:	f422                	sd	s0,40(sp)
   13698:	1800                	add	s0,sp,48
   1369a:	87aa                	mv	a5,a0
   1369c:	fcf42e23          	sw	a5,-36(s0)
   136a0:	12200893          	li	a7,290
   136a4:	00000073          	ecall
   136a8:	87aa                	mv	a5,a0
   136aa:	fef42623          	sw	a5,-20(s0)
   136ae:	fec42783          	lw	a5,-20(s0)
   136b2:	853e                	mv	a0,a5
   136b4:	7422                	ld	s0,40(sp)
   136b6:	6145                	add	sp,sp,48
   136b8:	8082                	ret

00000000000136ba <_Z9rev_statxiPKcjjP5statx>:
   136ba:	7139                	add	sp,sp,-64
   136bc:	fc22                	sd	s0,56(sp)
   136be:	0080                	add	s0,sp,64
   136c0:	87aa                	mv	a5,a0
   136c2:	fcb43823          	sd	a1,-48(s0)
   136c6:	fce43023          	sd	a4,-64(s0)
   136ca:	fcf42e23          	sw	a5,-36(s0)
   136ce:	87b2                	mv	a5,a2
   136d0:	fcf42c23          	sw	a5,-40(s0)
   136d4:	87b6                	mv	a5,a3
   136d6:	fcf42623          	sw	a5,-52(s0)
   136da:	12300893          	li	a7,291
   136de:	00000073          	ecall
   136e2:	87aa                	mv	a5,a0
   136e4:	fef42623          	sw	a5,-20(s0)
   136e8:	fec42783          	lw	a5,-20(s0)
   136ec:	853e                	mv	a0,a5
   136ee:	7462                	ld	s0,56(sp)
   136f0:	6121                	add	sp,sp,64
   136f2:	8082                	ret

00000000000136f4 <_Z17rev_io_pgeteventsmllP8io_eventP8timespecPK12__aio_sigset>:
   136f4:	715d                	add	sp,sp,-80
   136f6:	e4a2                	sd	s0,72(sp)
   136f8:	0880                	add	s0,sp,80
   136fa:	fca43c23          	sd	a0,-40(s0)
   136fe:	fcb43823          	sd	a1,-48(s0)
   13702:	fcc43423          	sd	a2,-56(s0)
   13706:	fcd43023          	sd	a3,-64(s0)
   1370a:	fae43c23          	sd	a4,-72(s0)
   1370e:	faf43823          	sd	a5,-80(s0)
   13712:	12400893          	li	a7,292
   13716:	00000073          	ecall
   1371a:	87aa                	mv	a5,a0
   1371c:	fef42623          	sw	a5,-20(s0)
   13720:	fec42783          	lw	a5,-20(s0)
   13724:	853e                	mv	a0,a5
   13726:	6426                	ld	s0,72(sp)
   13728:	6161                	add	sp,sp,80
   1372a:	8082                	ret

000000000001372c <_Z8rev_rseqP4rseqjij>:
   1372c:	7139                	add	sp,sp,-64
   1372e:	fc22                	sd	s0,56(sp)
   13730:	0080                	add	s0,sp,64
   13732:	fca43c23          	sd	a0,-40(s0)
   13736:	87ae                	mv	a5,a1
   13738:	8736                	mv	a4,a3
   1373a:	fcf42a23          	sw	a5,-44(s0)
   1373e:	87b2                	mv	a5,a2
   13740:	fcf42823          	sw	a5,-48(s0)
   13744:	87ba                	mv	a5,a4
   13746:	fcf42623          	sw	a5,-52(s0)
   1374a:	12500893          	li	a7,293
   1374e:	00000073          	ecall
   13752:	87aa                	mv	a5,a0
   13754:	fef42623          	sw	a5,-20(s0)
   13758:	fec42783          	lw	a5,-20(s0)
   1375c:	853e                	mv	a0,a5
   1375e:	7462                	ld	s0,56(sp)
   13760:	6121                	add	sp,sp,64
   13762:	8082                	ret

0000000000013764 <_Z19rev_kexec_file_loadiimPKcm>:
   13764:	7139                	add	sp,sp,-64
   13766:	fc22                	sd	s0,56(sp)
   13768:	0080                	add	s0,sp,64
   1376a:	87aa                	mv	a5,a0
   1376c:	fcc43823          	sd	a2,-48(s0)
   13770:	fcd43423          	sd	a3,-56(s0)
   13774:	fce43023          	sd	a4,-64(s0)
   13778:	fcf42e23          	sw	a5,-36(s0)
   1377c:	87ae                	mv	a5,a1
   1377e:	fcf42c23          	sw	a5,-40(s0)
   13782:	12600893          	li	a7,294
   13786:	00000073          	ecall
   1378a:	87aa                	mv	a5,a0
   1378c:	fef42623          	sw	a5,-20(s0)
   13790:	fec42783          	lw	a5,-20(s0)
   13794:	853e                	mv	a0,a5
   13796:	7462                	ld	s0,56(sp)
   13798:	6121                	add	sp,sp,64
   1379a:	8082                	ret

000000000001379c <_Z21rev_pidfd_send_signaliiP9siginfo_tj>:
   1379c:	7139                	add	sp,sp,-64
   1379e:	fc22                	sd	s0,56(sp)
   137a0:	0080                	add	s0,sp,64
   137a2:	87aa                	mv	a5,a0
   137a4:	fcc43823          	sd	a2,-48(s0)
   137a8:	8736                	mv	a4,a3
   137aa:	fcf42e23          	sw	a5,-36(s0)
   137ae:	87ae                	mv	a5,a1
   137b0:	fcf42c23          	sw	a5,-40(s0)
   137b4:	87ba                	mv	a5,a4
   137b6:	fcf42623          	sw	a5,-52(s0)
   137ba:	1a800893          	li	a7,424
   137be:	00000073          	ecall
   137c2:	87aa                	mv	a5,a0
   137c4:	fef42623          	sw	a5,-20(s0)
   137c8:	fec42783          	lw	a5,-20(s0)
   137cc:	853e                	mv	a0,a5
   137ce:	7462                	ld	s0,56(sp)
   137d0:	6121                	add	sp,sp,64
   137d2:	8082                	ret

00000000000137d4 <_Z18rev_io_uring_setupjP15io_uring_params>:
   137d4:	7179                	add	sp,sp,-48
   137d6:	f422                	sd	s0,40(sp)
   137d8:	1800                	add	s0,sp,48
   137da:	87aa                	mv	a5,a0
   137dc:	fcb43823          	sd	a1,-48(s0)
   137e0:	fcf42e23          	sw	a5,-36(s0)
   137e4:	1a900893          	li	a7,425
   137e8:	00000073          	ecall
   137ec:	87aa                	mv	a5,a0
   137ee:	fef42623          	sw	a5,-20(s0)
   137f2:	fec42783          	lw	a5,-20(s0)
   137f6:	853e                	mv	a0,a5
   137f8:	7422                	ld	s0,40(sp)
   137fa:	6145                	add	sp,sp,48
   137fc:	8082                	ret

00000000000137fe <_Z18rev_io_uring_enterjjjjPKmm>:
   137fe:	7139                	add	sp,sp,-64
   13800:	fc22                	sd	s0,56(sp)
   13802:	0080                	add	s0,sp,64
   13804:	fce43423          	sd	a4,-56(s0)
   13808:	fcf43023          	sd	a5,-64(s0)
   1380c:	87aa                	mv	a5,a0
   1380e:	fcf42e23          	sw	a5,-36(s0)
   13812:	87ae                	mv	a5,a1
   13814:	fcf42c23          	sw	a5,-40(s0)
   13818:	87b2                	mv	a5,a2
   1381a:	fcf42a23          	sw	a5,-44(s0)
   1381e:	87b6                	mv	a5,a3
   13820:	fcf42823          	sw	a5,-48(s0)
   13824:	1aa00893          	li	a7,426
   13828:	00000073          	ecall
   1382c:	87aa                	mv	a5,a0
   1382e:	fef42623          	sw	a5,-20(s0)
   13832:	fec42783          	lw	a5,-20(s0)
   13836:	853e                	mv	a0,a5
   13838:	7462                	ld	s0,56(sp)
   1383a:	6121                	add	sp,sp,64
   1383c:	8082                	ret

000000000001383e <_Z21rev_io_uring_registerjjPvj>:
   1383e:	7139                	add	sp,sp,-64
   13840:	fc22                	sd	s0,56(sp)
   13842:	0080                	add	s0,sp,64
   13844:	87aa                	mv	a5,a0
   13846:	fcc43823          	sd	a2,-48(s0)
   1384a:	8736                	mv	a4,a3
   1384c:	fcf42e23          	sw	a5,-36(s0)
   13850:	87ae                	mv	a5,a1
   13852:	fcf42c23          	sw	a5,-40(s0)
   13856:	87ba                	mv	a5,a4
   13858:	fcf42623          	sw	a5,-52(s0)
   1385c:	1ab00893          	li	a7,427
   13860:	00000073          	ecall
   13864:	87aa                	mv	a5,a0
   13866:	fef42623          	sw	a5,-20(s0)
   1386a:	fec42783          	lw	a5,-20(s0)
   1386e:	853e                	mv	a0,a5
   13870:	7462                	ld	s0,56(sp)
   13872:	6121                	add	sp,sp,64
   13874:	8082                	ret

0000000000013876 <_Z13rev_open_treeiPKcj>:
   13876:	7179                	add	sp,sp,-48
   13878:	f422                	sd	s0,40(sp)
   1387a:	1800                	add	s0,sp,48
   1387c:	87aa                	mv	a5,a0
   1387e:	fcb43823          	sd	a1,-48(s0)
   13882:	8732                	mv	a4,a2
   13884:	fcf42e23          	sw	a5,-36(s0)
   13888:	87ba                	mv	a5,a4
   1388a:	fcf42c23          	sw	a5,-40(s0)
   1388e:	1ac00893          	li	a7,428
   13892:	00000073          	ecall
   13896:	87aa                	mv	a5,a0
   13898:	fef42623          	sw	a5,-20(s0)
   1389c:	fec42783          	lw	a5,-20(s0)
   138a0:	853e                	mv	a0,a5
   138a2:	7422                	ld	s0,40(sp)
   138a4:	6145                	add	sp,sp,48
   138a6:	8082                	ret

00000000000138a8 <_Z14rev_move_mountiPKciS0_j>:
   138a8:	7139                	add	sp,sp,-64
   138aa:	fc22                	sd	s0,56(sp)
   138ac:	0080                	add	s0,sp,64
   138ae:	87aa                	mv	a5,a0
   138b0:	fcb43823          	sd	a1,-48(s0)
   138b4:	fcd43423          	sd	a3,-56(s0)
   138b8:	fcf42e23          	sw	a5,-36(s0)
   138bc:	87b2                	mv	a5,a2
   138be:	fcf42c23          	sw	a5,-40(s0)
   138c2:	87ba                	mv	a5,a4
   138c4:	fcf42223          	sw	a5,-60(s0)
   138c8:	1ad00893          	li	a7,429
   138cc:	00000073          	ecall
   138d0:	87aa                	mv	a5,a0
   138d2:	fef42623          	sw	a5,-20(s0)
   138d6:	fec42783          	lw	a5,-20(s0)
   138da:	853e                	mv	a0,a5
   138dc:	7462                	ld	s0,56(sp)
   138de:	6121                	add	sp,sp,64
   138e0:	8082                	ret

00000000000138e2 <_Z10rev_fsopenPKcj>:
   138e2:	7179                	add	sp,sp,-48
   138e4:	f422                	sd	s0,40(sp)
   138e6:	1800                	add	s0,sp,48
   138e8:	fca43c23          	sd	a0,-40(s0)
   138ec:	87ae                	mv	a5,a1
   138ee:	fcf42a23          	sw	a5,-44(s0)
   138f2:	1ae00893          	li	a7,430
   138f6:	00000073          	ecall
   138fa:	87aa                	mv	a5,a0
   138fc:	fef42623          	sw	a5,-20(s0)
   13900:	fec42783          	lw	a5,-20(s0)
   13904:	853e                	mv	a0,a5
   13906:	7422                	ld	s0,40(sp)
   13908:	6145                	add	sp,sp,48
   1390a:	8082                	ret

000000000001390c <_Z12rev_fsconfigijPKcPKvi>:
   1390c:	7139                	add	sp,sp,-64
   1390e:	fc22                	sd	s0,56(sp)
   13910:	0080                	add	s0,sp,64
   13912:	87aa                	mv	a5,a0
   13914:	fcc43823          	sd	a2,-48(s0)
   13918:	fcd43423          	sd	a3,-56(s0)
   1391c:	fcf42e23          	sw	a5,-36(s0)
   13920:	87ae                	mv	a5,a1
   13922:	fcf42c23          	sw	a5,-40(s0)
   13926:	87ba                	mv	a5,a4
   13928:	fcf42223          	sw	a5,-60(s0)
   1392c:	1af00893          	li	a7,431
   13930:	00000073          	ecall
   13934:	87aa                	mv	a5,a0
   13936:	fef42623          	sw	a5,-20(s0)
   1393a:	fec42783          	lw	a5,-20(s0)
   1393e:	853e                	mv	a0,a5
   13940:	7462                	ld	s0,56(sp)
   13942:	6121                	add	sp,sp,64
   13944:	8082                	ret

0000000000013946 <_Z11rev_fsmountijj>:
   13946:	7179                	add	sp,sp,-48
   13948:	f422                	sd	s0,40(sp)
   1394a:	1800                	add	s0,sp,48
   1394c:	87aa                	mv	a5,a0
   1394e:	86ae                	mv	a3,a1
   13950:	8732                	mv	a4,a2
   13952:	fcf42e23          	sw	a5,-36(s0)
   13956:	87b6                	mv	a5,a3
   13958:	fcf42c23          	sw	a5,-40(s0)
   1395c:	87ba                	mv	a5,a4
   1395e:	fcf42a23          	sw	a5,-44(s0)
   13962:	1b000893          	li	a7,432
   13966:	00000073          	ecall
   1396a:	87aa                	mv	a5,a0
   1396c:	fef42623          	sw	a5,-20(s0)
   13970:	fec42783          	lw	a5,-20(s0)
   13974:	853e                	mv	a0,a5
   13976:	7422                	ld	s0,40(sp)
   13978:	6145                	add	sp,sp,48
   1397a:	8082                	ret

000000000001397c <_Z10rev_fspickiPKcj>:
   1397c:	7179                	add	sp,sp,-48
   1397e:	f422                	sd	s0,40(sp)
   13980:	1800                	add	s0,sp,48
   13982:	87aa                	mv	a5,a0
   13984:	fcb43823          	sd	a1,-48(s0)
   13988:	8732                	mv	a4,a2
   1398a:	fcf42e23          	sw	a5,-36(s0)
   1398e:	87ba                	mv	a5,a4
   13990:	fcf42c23          	sw	a5,-40(s0)
   13994:	1b100893          	li	a7,433
   13998:	00000073          	ecall
   1399c:	87aa                	mv	a5,a0
   1399e:	fef42623          	sw	a5,-20(s0)
   139a2:	fec42783          	lw	a5,-20(s0)
   139a6:	853e                	mv	a0,a5
   139a8:	7422                	ld	s0,40(sp)
   139aa:	6145                	add	sp,sp,48
   139ac:	8082                	ret

00000000000139ae <_Z14rev_pidfd_openij>:
   139ae:	7179                	add	sp,sp,-48
   139b0:	f422                	sd	s0,40(sp)
   139b2:	1800                	add	s0,sp,48
   139b4:	87aa                	mv	a5,a0
   139b6:	872e                	mv	a4,a1
   139b8:	fcf42e23          	sw	a5,-36(s0)
   139bc:	87ba                	mv	a5,a4
   139be:	fcf42c23          	sw	a5,-40(s0)
   139c2:	1b200893          	li	a7,434
   139c6:	00000073          	ecall
   139ca:	87aa                	mv	a5,a0
   139cc:	fef42623          	sw	a5,-20(s0)
   139d0:	fec42783          	lw	a5,-20(s0)
   139d4:	853e                	mv	a0,a5
   139d6:	7422                	ld	s0,40(sp)
   139d8:	6145                	add	sp,sp,48
   139da:	8082                	ret

00000000000139dc <_Z10rev_clone3P10clone_argsm>:
   139dc:	7179                	add	sp,sp,-48
   139de:	f422                	sd	s0,40(sp)
   139e0:	1800                	add	s0,sp,48
   139e2:	fca43c23          	sd	a0,-40(s0)
   139e6:	fcb43823          	sd	a1,-48(s0)
   139ea:	1b300893          	li	a7,435
   139ee:	00000073          	ecall
   139f2:	87aa                	mv	a5,a0
   139f4:	fef42623          	sw	a5,-20(s0)
   139f8:	fec42783          	lw	a5,-20(s0)
   139fc:	853e                	mv	a0,a5
   139fe:	7422                	ld	s0,40(sp)
   13a00:	6145                	add	sp,sp,48
   13a02:	8082                	ret

0000000000013a04 <_Z15rev_close_rangejjj>:
   13a04:	7179                	add	sp,sp,-48
   13a06:	f422                	sd	s0,40(sp)
   13a08:	1800                	add	s0,sp,48
   13a0a:	87aa                	mv	a5,a0
   13a0c:	86ae                	mv	a3,a1
   13a0e:	8732                	mv	a4,a2
   13a10:	fcf42e23          	sw	a5,-36(s0)
   13a14:	87b6                	mv	a5,a3
   13a16:	fcf42c23          	sw	a5,-40(s0)
   13a1a:	87ba                	mv	a5,a4
   13a1c:	fcf42a23          	sw	a5,-44(s0)
   13a20:	1b400893          	li	a7,436
   13a24:	00000073          	ecall
   13a28:	87aa                	mv	a5,a0
   13a2a:	fef42623          	sw	a5,-20(s0)
   13a2e:	fec42783          	lw	a5,-20(s0)
   13a32:	853e                	mv	a0,a5
   13a34:	7422                	ld	s0,40(sp)
   13a36:	6145                	add	sp,sp,48
   13a38:	8082                	ret

0000000000013a3a <_Z11rev_openat2iPKcP8open_howm>:
   13a3a:	7139                	add	sp,sp,-64
   13a3c:	fc22                	sd	s0,56(sp)
   13a3e:	0080                	add	s0,sp,64
   13a40:	87aa                	mv	a5,a0
   13a42:	fcb43823          	sd	a1,-48(s0)
   13a46:	fcc43423          	sd	a2,-56(s0)
   13a4a:	fcd43023          	sd	a3,-64(s0)
   13a4e:	fcf42e23          	sw	a5,-36(s0)
   13a52:	1b500893          	li	a7,437
   13a56:	00000073          	ecall
   13a5a:	87aa                	mv	a5,a0
   13a5c:	fef42623          	sw	a5,-20(s0)
   13a60:	fec42783          	lw	a5,-20(s0)
   13a64:	853e                	mv	a0,a5
   13a66:	7462                	ld	s0,56(sp)
   13a68:	6121                	add	sp,sp,64
   13a6a:	8082                	ret

0000000000013a6c <_Z15rev_pidfd_getfdiij>:
   13a6c:	7179                	add	sp,sp,-48
   13a6e:	f422                	sd	s0,40(sp)
   13a70:	1800                	add	s0,sp,48
   13a72:	87aa                	mv	a5,a0
   13a74:	86ae                	mv	a3,a1
   13a76:	8732                	mv	a4,a2
   13a78:	fcf42e23          	sw	a5,-36(s0)
   13a7c:	87b6                	mv	a5,a3
   13a7e:	fcf42c23          	sw	a5,-40(s0)
   13a82:	87ba                	mv	a5,a4
   13a84:	fcf42a23          	sw	a5,-44(s0)
   13a88:	1b600893          	li	a7,438
   13a8c:	00000073          	ecall
   13a90:	87aa                	mv	a5,a0
   13a92:	fef42623          	sw	a5,-20(s0)
   13a96:	fec42783          	lw	a5,-20(s0)
   13a9a:	853e                	mv	a0,a5
   13a9c:	7422                	ld	s0,40(sp)
   13a9e:	6145                	add	sp,sp,48
   13aa0:	8082                	ret

0000000000013aa2 <_Z14rev_faccessat2iPKcii>:
   13aa2:	7139                	add	sp,sp,-64
   13aa4:	fc22                	sd	s0,56(sp)
   13aa6:	0080                	add	s0,sp,64
   13aa8:	87aa                	mv	a5,a0
   13aaa:	fcb43823          	sd	a1,-48(s0)
   13aae:	8736                	mv	a4,a3
   13ab0:	fcf42e23          	sw	a5,-36(s0)
   13ab4:	87b2                	mv	a5,a2
   13ab6:	fcf42c23          	sw	a5,-40(s0)
   13aba:	87ba                	mv	a5,a4
   13abc:	fcf42623          	sw	a5,-52(s0)
   13ac0:	1b700893          	li	a7,439
   13ac4:	00000073          	ecall
   13ac8:	87aa                	mv	a5,a0
   13aca:	fef42623          	sw	a5,-20(s0)
   13ace:	fec42783          	lw	a5,-20(s0)
   13ad2:	853e                	mv	a0,a5
   13ad4:	7462                	ld	s0,56(sp)
   13ad6:	6121                	add	sp,sp,64
   13ad8:	8082                	ret

0000000000013ada <_Z19rev_process_madviseiPK5iovecmij>:
   13ada:	7139                	add	sp,sp,-64
   13adc:	fc22                	sd	s0,56(sp)
   13ade:	0080                	add	s0,sp,64
   13ae0:	87aa                	mv	a5,a0
   13ae2:	fcb43823          	sd	a1,-48(s0)
   13ae6:	fcc43423          	sd	a2,-56(s0)
   13aea:	fcf42e23          	sw	a5,-36(s0)
   13aee:	87b6                	mv	a5,a3
   13af0:	fcf42c23          	sw	a5,-40(s0)
   13af4:	87ba                	mv	a5,a4
   13af6:	fcf42223          	sw	a5,-60(s0)
   13afa:	1b800893          	li	a7,440
   13afe:	00000073          	ecall
   13b02:	87aa                	mv	a5,a0
   13b04:	fef42623          	sw	a5,-20(s0)
   13b08:	fec42783          	lw	a5,-20(s0)
   13b0c:	853e                	mv	a0,a5
   13b0e:	7462                	ld	s0,56(sp)
   13b10:	6121                	add	sp,sp,64
   13b12:	8082                	ret

0000000000013b14 <_Z11rev_cpuinfoP11rev_cpuinfo>:
   13b14:	7179                	add	sp,sp,-48
   13b16:	f422                	sd	s0,40(sp)
   13b18:	1800                	add	s0,sp,48
   13b1a:	fca43c23          	sd	a0,-40(s0)
   13b1e:	1f400893          	li	a7,500
   13b22:	00000073          	ecall
   13b26:	87aa                	mv	a5,a0
   13b28:	fef42623          	sw	a5,-20(s0)
   13b2c:	fec42783          	lw	a5,-20(s0)
   13b30:	853e                	mv	a0,a5
   13b32:	7422                	ld	s0,40(sp)
   13b34:	6145                	add	sp,sp,48
   13b36:	8082                	ret

0000000000013b38 <_Z14rev_perf_statsP9rev_stats>:
   13b38:	7179                	add	sp,sp,-48
   13b3a:	f422                	sd	s0,40(sp)
   13b3c:	1800                	add	s0,sp,48
   13b3e:	fca43c23          	sd	a0,-40(s0)
   13b42:	1f500893          	li	a7,501
   13b46:	00000073          	ecall
   13b4a:	87aa                	mv	a5,a0
   13b4c:	fef42623          	sw	a5,-20(s0)
   13b50:	fec42783          	lw	a5,-20(s0)
   13b54:	853e                	mv	a0,a5
   13b56:	7422                	ld	s0,40(sp)
   13b58:	6145                	add	sp,sp,48
   13b5a:	8082                	ret

0000000000013b5c <_Z18rev_pthread_createPmPvS0_S0_>:
   13b5c:	7139                	add	sp,sp,-64
   13b5e:	fc22                	sd	s0,56(sp)
   13b60:	0080                	add	s0,sp,64
   13b62:	fca43c23          	sd	a0,-40(s0)
   13b66:	fcb43823          	sd	a1,-48(s0)
   13b6a:	fcc43423          	sd	a2,-56(s0)
   13b6e:	fcd43023          	sd	a3,-64(s0)
   13b72:	3e800893          	li	a7,1000
   13b76:	00000073          	ecall
   13b7a:	87aa                	mv	a5,a0
   13b7c:	fef42623          	sw	a5,-20(s0)
   13b80:	fec42783          	lw	a5,-20(s0)
   13b84:	853e                	mv	a0,a5
   13b86:	7462                	ld	s0,56(sp)
   13b88:	6121                	add	sp,sp,64
   13b8a:	8082                	ret

0000000000013b8c <_Z16rev_pthread_joinm>:
   13b8c:	7179                	add	sp,sp,-48
   13b8e:	f422                	sd	s0,40(sp)
   13b90:	1800                	add	s0,sp,48
   13b92:	fca43c23          	sd	a0,-40(s0)
   13b96:	3e900893          	li	a7,1001
   13b9a:	00000073          	ecall
   13b9e:	87aa                	mv	a5,a0
   13ba0:	fef42623          	sw	a5,-20(s0)
   13ba4:	fec42783          	lw	a5,-20(s0)
   13ba8:	853e                	mv	a0,a5
   13baa:	7422                	ld	s0,40(sp)
   13bac:	6145                	add	sp,sp,48
   13bae:	8082                	ret

0000000000013bb0 <_Z12forza_mallocm>:
   13bb0:	1101                	add	sp,sp,-32
   13bb2:	ec06                	sd	ra,24(sp)
   13bb4:	e822                	sd	s0,16(sp)
   13bb6:	1000                	add	s0,sp,32
   13bb8:	fea43423          	sd	a0,-24(s0)
   13bbc:	4781                	li	a5,0
   13bbe:	577d                	li	a4,-1
   13bc0:	02200693          	li	a3,34
   13bc4:	461d                	li	a2,7
   13bc6:	fe843583          	ld	a1,-24(s0)
   13bca:	4501                	li	a0,0
   13bcc:	8b8ff0ef          	jal	12c84 <_Z8rev_mmapmmiiil>
   13bd0:	87aa                	mv	a5,a0
   13bd2:	853e                	mv	a0,a5
   13bd4:	60e2                	ld	ra,24(sp)
   13bd6:	6442                	ld	s0,16(sp)
   13bd8:	6105                	add	sp,sp,32
   13bda:	8082                	ret

0000000000013bdc <_Z10forza_freePvm>:
   13bdc:	7179                	add	sp,sp,-48
   13bde:	f406                	sd	ra,40(sp)
   13be0:	f022                	sd	s0,32(sp)
   13be2:	1800                	add	s0,sp,48
   13be4:	fca43c23          	sd	a0,-40(s0)
   13be8:	fcb43823          	sd	a1,-48(s0)
   13bec:	fd843783          	ld	a5,-40(s0)
   13bf0:	fef43423          	sd	a5,-24(s0)
   13bf4:	fd043583          	ld	a1,-48(s0)
   13bf8:	fe843503          	ld	a0,-24(s0)
   13bfc:	f0ffe0ef          	jal	12b0a <_Z10rev_munmapmm>
   13c00:	87aa                	mv	a5,a0
   13c02:	853e                	mv	a0,a5
   13c04:	70a2                	ld	ra,40(sp)
   13c06:	7402                	ld	s0,32(sp)
   13c08:	6145                	add	sp,sp,48
   13c0a:	8082                	ret

0000000000013c0c <_Znwm>:
   13c0c:	7179                	add	sp,sp,-48
   13c0e:	f406                	sd	ra,40(sp)
   13c10:	f022                	sd	s0,32(sp)
   13c12:	1800                	add	s0,sp,48
   13c14:	fca43c23          	sd	a0,-40(s0)
   13c18:	fd843503          	ld	a0,-40(s0)
   13c1c:	f95ff0ef          	jal	13bb0 <_Z12forza_mallocm>
   13c20:	fea43423          	sd	a0,-24(s0)
   13c24:	fe843783          	ld	a5,-24(s0)
   13c28:	853e                	mv	a0,a5
   13c2a:	70a2                	ld	ra,40(sp)
   13c2c:	7402                	ld	s0,32(sp)
   13c2e:	6145                	add	sp,sp,48
   13c30:	8082                	ret

0000000000013c32 <_Z10forza_putcic>:
   13c32:	1101                	add	sp,sp,-32
   13c34:	ec22                	sd	s0,24(sp)
   13c36:	1000                	add	s0,sp,32
   13c38:	87aa                	mv	a5,a0
   13c3a:	872e                	mv	a4,a1
   13c3c:	fef42623          	sw	a5,-20(s0)
   13c40:	87ba                	mv	a5,a4
   13c42:	fef405a3          	sb	a5,-21(s0)
   13c46:	9681c783          	lbu	a5,-1688(gp) # 3e848 <revbufhead>
   13c4a:	2781                	sext.w	a5,a5
   13c4c:	0003f737          	lui	a4,0x3f
   13c50:	93070713          	add	a4,a4,-1744 # 3e930 <revbuf>
   13c54:	97ba                	add	a5,a5,a4
   13c56:	feb44703          	lbu	a4,-21(s0)
   13c5a:	00e78023          	sb	a4,0(a5)
   13c5e:	9681c783          	lbu	a5,-1688(gp) # 3e848 <revbufhead>
   13c62:	2785                	addw	a5,a5,1
   13c64:	0ff7f713          	zext.b	a4,a5
   13c68:	96e18423          	sb	a4,-1688(gp) # 3e848 <revbufhead>
   13c6c:	0001                	nop
   13c6e:	6462                	ld	s0,24(sp)
   13c70:	6105                	add	sp,sp,32
   13c72:	8082                	ret

0000000000013c74 <_Z10forza_putsiPc>:
   13c74:	7179                	add	sp,sp,-48
   13c76:	f406                	sd	ra,40(sp)
   13c78:	f022                	sd	s0,32(sp)
   13c7a:	1800                	add	s0,sp,48
   13c7c:	87aa                	mv	a5,a0
   13c7e:	fcb43823          	sd	a1,-48(s0)
   13c82:	fcf42e23          	sw	a5,-36(s0)
   13c86:	fd043783          	ld	a5,-48(s0)
   13c8a:	cf8d                	beqz	a5,13cc4 <_Z10forza_putsiPc+0x50>
   13c8c:	a809                	j	13c9e <_Z10forza_putsiPc+0x2a>
   13c8e:	fef44703          	lbu	a4,-17(s0)
   13c92:	fdc42783          	lw	a5,-36(s0)
   13c96:	85ba                	mv	a1,a4
   13c98:	853e                	mv	a0,a5
   13c9a:	f99ff0ef          	jal	13c32 <_Z10forza_putcic>
   13c9e:	fd043783          	ld	a5,-48(s0)
   13ca2:	00178713          	add	a4,a5,1
   13ca6:	fce43823          	sd	a4,-48(s0)
   13caa:	0007c783          	lbu	a5,0(a5)
   13cae:	fef407a3          	sb	a5,-17(s0)
   13cb2:	fef44783          	lbu	a5,-17(s0)
   13cb6:	2781                	sext.w	a5,a5
   13cb8:	00f037b3          	snez	a5,a5
   13cbc:	0ff7f793          	zext.b	a5,a5
   13cc0:	f7f9                	bnez	a5,13c8e <_Z10forza_putsiPc+0x1a>
   13cc2:	a011                	j	13cc6 <_Z10forza_putsiPc+0x52>
   13cc4:	0001                	nop
   13cc6:	70a2                	ld	ra,40(sp)
   13cc8:	7402                	ld	s0,32(sp)
   13cca:	6145                	add	sp,sp,48
   13ccc:	8082                	ret

0000000000013cce <_Z10printfloatid>:
   13cce:	7119                	add	sp,sp,-128
   13cd0:	fc86                	sd	ra,120(sp)
   13cd2:	f8a2                	sd	s0,112(sp)
   13cd4:	0100                	add	s0,sp,128
   13cd6:	87aa                	mv	a5,a0
   13cd8:	f8a43027          	fsd	fa0,-128(s0)
   13cdc:	f8f42623          	sw	a5,-116(s0)
   13ce0:	f9840793          	add	a5,s0,-104
   13ce4:	fef43423          	sd	a5,-24(s0)
   13ce8:	fe843783          	ld	a5,-24(s0)
   13cec:	fef43023          	sd	a5,-32(s0)
   13cf0:	47a9                	li	a5,10
   13cf2:	fcf42a23          	sw	a5,-44(s0)
   13cf6:	fd442783          	lw	a5,-44(s0)
   13cfa:	0007871b          	sext.w	a4,a5
   13cfe:	47a9                	li	a5,10
   13d00:	00e7d563          	bge	a5,a4,13d0a <_Z10printfloatid+0x3c>
   13d04:	47a9                	li	a5,10
   13d06:	fcf42a23          	sw	a5,-44(s0)
   13d0a:	f8043787          	fld	fa5,-128(s0)
   13d0e:	f2000753          	fmv.d.x	fa4,zero
   13d12:	a2e797d3          	flt.d	a5,fa5,fa4
   13d16:	c38d                	beqz	a5,13d38 <_Z10printfloatid+0x6a>
   13d18:	f8043787          	fld	fa5,-128(s0)
   13d1c:	22f797d3          	fneg.d	fa5,fa5
   13d20:	f8f43027          	fsd	fa5,-128(s0)
   13d24:	fe843783          	ld	a5,-24(s0)
   13d28:	00178713          	add	a4,a5,1
   13d2c:	fee43423          	sd	a4,-24(s0)
   13d30:	02d00713          	li	a4,45
   13d34:	00e78023          	sb	a4,0(a5)
   13d38:	fd442783          	lw	a5,-44(s0)
   13d3c:	2781                	sext.w	a5,a5
   13d3e:	c385                	beqz	a5,13d5e <_Z10printfloatid+0x90>
   13d40:	000307b7          	lui	a5,0x30
   13d44:	8a078713          	add	a4,a5,-1888 # 2f8a0 <_ZL8rounders>
   13d48:	fd442783          	lw	a5,-44(s0)
   13d4c:	078e                	sll	a5,a5,0x3
   13d4e:	97ba                	add	a5,a5,a4
   13d50:	239c                	fld	fa5,0(a5)
   13d52:	f8043707          	fld	fa4,-128(s0)
   13d56:	02f777d3          	fadd.d	fa5,fa4,fa5
   13d5a:	f8f43027          	fsd	fa5,-128(s0)
   13d5e:	f8043787          	fld	fa5,-128(s0)
   13d62:	c22797d3          	fcvt.l.d	a5,fa5,rtz
   13d66:	fcf43c23          	sd	a5,-40(s0)
   13d6a:	fd843783          	ld	a5,-40(s0)
   13d6e:	d227f7d3          	fcvt.d.l	fa5,a5
   13d72:	f8043707          	fld	fa4,-128(s0)
   13d76:	0af777d3          	fsub.d	fa5,fa4,fa5
   13d7a:	f8f43027          	fsd	fa5,-128(s0)
   13d7e:	fd843783          	ld	a5,-40(s0)
   13d82:	ef81                	bnez	a5,13d9a <_Z10printfloatid+0xcc>
   13d84:	fe843783          	ld	a5,-24(s0)
   13d88:	00178713          	add	a4,a5,1
   13d8c:	fee43423          	sd	a4,-24(s0)
   13d90:	03000713          	li	a4,48
   13d94:	00e78023          	sb	a4,0(a5)
   13d98:	a879                	j	13e36 <_Z10printfloatid+0x168>
   13d9a:	fe843783          	ld	a5,-24(s0)
   13d9e:	fef43023          	sd	a5,-32(s0)
   13da2:	a81d                	j	13dd8 <_Z10printfloatid+0x10a>
   13da4:	fd843703          	ld	a4,-40(s0)
   13da8:	47a9                	li	a5,10
   13daa:	02f767b3          	rem	a5,a4,a5
   13dae:	0ff7f793          	zext.b	a5,a5
   13db2:	0307879b          	addw	a5,a5,48
   13db6:	0ff7f713          	zext.b	a4,a5
   13dba:	fe043783          	ld	a5,-32(s0)
   13dbe:	00178693          	add	a3,a5,1
   13dc2:	fed43023          	sd	a3,-32(s0)
   13dc6:	00e78023          	sb	a4,0(a5)
